
SAME54v3.elf:     file format elf32-littlearm

Sections:
Idx Name          Size      VMA       LMA       File off  Algn
  0 .text         00002a08  00000000  00000000  00010000  2**3
                  CONTENTS, ALLOC, LOAD, READONLY, CODE
  1 .relocate     00000b54  20000000  00002a08  00020000  2**3
                  CONTENTS, ALLOC, LOAD, DATA
  2 .bkupram      00000000  47000000  47000000  00020b54  2**0
                  CONTENTS
  3 .qspi         00000000  04000000  04000000  00020b54  2**0
                  CONTENTS
  4 .bss          000000dc  20000b54  0000355c  00020b54  2**2
                  ALLOC
  5 .stack        00010000  20000c30  00003638  00020b54  2**0
                  ALLOC
  6 .ARM.attributes 0000002a  00000000  00000000  00020b54  2**0
                  CONTENTS, READONLY
  7 .comment      00000059  00000000  00000000  00020b7e  2**0
                  CONTENTS, READONLY
  8 .debug_info   0000fcae  00000000  00000000  00020bd7  2**0
                  CONTENTS, READONLY, DEBUGGING
  9 .debug_abbrev 00000f9d  00000000  00000000  00030885  2**0
                  CONTENTS, READONLY, DEBUGGING
 10 .debug_loc    0000097d  00000000  00000000  00031822  2**0
                  CONTENTS, READONLY, DEBUGGING
 11 .debug_aranges 00000228  00000000  00000000  0003219f  2**0
                  CONTENTS, READONLY, DEBUGGING
 12 .debug_ranges 000002d8  00000000  00000000  000323c7  2**0
                  CONTENTS, READONLY, DEBUGGING
 13 .debug_macro  0002a121  00000000  00000000  0003269f  2**0
                  CONTENTS, READONLY, DEBUGGING
 14 .debug_line   0000427e  00000000  00000000  0005c7c0  2**0
                  CONTENTS, READONLY, DEBUGGING
 15 .debug_str    001040c7  00000000  00000000  00060a3e  2**0
                  CONTENTS, READONLY, DEBUGGING
 16 .debug_frame  000007f8  00000000  00000000  00164b08  2**2
                  CONTENTS, READONLY, DEBUGGING

Disassembly of section .text:

00000000 <exception_table>:
       0:	30 0c 01 20 c1 06 00 00 bd 06 00 00 bd 06 00 00     0.. ............
      10:	bd 06 00 00 bd 06 00 00 bd 06 00 00 00 00 00 00     ................
	...
      2c:	bd 06 00 00 bd 06 00 00 00 00 00 00 bd 06 00 00     ................
      3c:	bd 06 00 00 bd 06 00 00 bd 06 00 00 bd 06 00 00     ................
      4c:	bd 06 00 00 bd 06 00 00 bd 06 00 00 bd 06 00 00     ................
      5c:	bd 06 00 00 bd 06 00 00 bd 06 00 00 bd 06 00 00     ................
      6c:	bd 06 00 00 bd 06 00 00 bd 06 00 00 bd 06 00 00     ................
      7c:	bd 06 00 00 bd 06 00 00 bd 06 00 00 0d 15 00 00     ................
      8c:	bd 06 00 00 bd 06 00 00 bd 06 00 00 bd 06 00 00     ................
      9c:	49 0d 00 00 bd 06 00 00 bd 06 00 00 bd 06 00 00     I...............
      ac:	bd 06 00 00 bd 06 00 00 bd 06 00 00 bd 06 00 00     ................
      bc:	bd 06 00 00 bd 06 00 00 bd 06 00 00 bd 06 00 00     ................
      cc:	bd 06 00 00 bd 06 00 00 bd 06 00 00 bd 06 00 00     ................
      dc:	bd 06 00 00 bd 06 00 00 bd 06 00 00 bd 06 00 00     ................
      ec:	bd 06 00 00 00 00 00 00 bd 06 00 00 bd 06 00 00     ................
      fc:	bd 06 00 00 2d 04 00 00 bd 06 00 00 bd 06 00 00     ....-...........
     10c:	bd 06 00 00 6d 09 00 00 bd 06 00 00 bd 06 00 00     ....m...........
     11c:	bd 06 00 00 29 09 00 00 bd 06 00 00 bd 06 00 00     ....)...........
     12c:	bd 06 00 00 bd 06 00 00 bd 06 00 00 bd 06 00 00     ................
     13c:	bd 06 00 00 bd 06 00 00 bd 06 00 00 bd 06 00 00     ................
     14c:	bd 06 00 00 bd 06 00 00 bd 06 00 00 bd 06 00 00     ................
     15c:	bd 06 00 00 bd 06 00 00 bd 06 00 00 bd 06 00 00     ................
     16c:	bd 06 00 00 bd 06 00 00 bd 06 00 00 bd 06 00 00     ................
     17c:	bd 06 00 00 bd 06 00 00 bd 06 00 00 bd 06 00 00     ................
     18c:	bd 06 00 00 bd 06 00 00 bd 06 00 00 bd 06 00 00     ................
     19c:	bd 06 00 00 bd 06 00 00 bd 06 00 00 bd 06 00 00     ................
     1ac:	bd 06 00 00 bd 06 00 00 bd 06 00 00 bd 06 00 00     ................
     1bc:	bd 06 00 00 bd 06 00 00 bd 06 00 00 bd 06 00 00     ................
     1cc:	bd 06 00 00 bd 06 00 00 bd 06 00 00 bd 06 00 00     ................
     1dc:	bd 06 00 00 bd 06 00 00 bd 06 00 00 bd 06 00 00     ................
     1ec:	bd 06 00 00 bd 06 00 00 bd 06 00 00 bd 06 00 00     ................
     1fc:	dd 1a 00 00 dd 0d 00 00 bd 06 00 00 bd 06 00 00     ................
     20c:	bd 06 00 00 bd 06 00 00 bd 06 00 00 bd 06 00 00     ................
     21c:	bd 06 00 00 bd 06 00 00 bd 06 00 00 bd 06 00 00     ................
     22c:	bd 06 00 00 bd 06 00 00 bd 06 00 00 bd 06 00 00     ................
     23c:	bd 06 00 00 bd 06 00 00 bd 06 00 00 bd 06 00 00     ................
     24c:	bd 06 00 00 bd 06 00 00 bd 06 00 00 bd 06 00 00     ................
     25c:	bd 06 00 00 bd 06 00 00                             ........

00000264 <__do_global_dtors_aux>:
     264:	b510      	push	{r4, lr}
     266:	4c05      	ldr	r4, [pc, #20]	; (27c <__do_global_dtors_aux+0x18>)
     268:	7823      	ldrb	r3, [r4, #0]
     26a:	b933      	cbnz	r3, 27a <__do_global_dtors_aux+0x16>
     26c:	4b04      	ldr	r3, [pc, #16]	; (280 <__do_global_dtors_aux+0x1c>)
     26e:	b113      	cbz	r3, 276 <__do_global_dtors_aux+0x12>
     270:	4804      	ldr	r0, [pc, #16]	; (284 <__do_global_dtors_aux+0x20>)
     272:	f3af 8000 	nop.w
     276:	2301      	movs	r3, #1
     278:	7023      	strb	r3, [r4, #0]
     27a:	bd10      	pop	{r4, pc}
     27c:	20000b54 	.word	0x20000b54
     280:	00000000 	.word	0x00000000
     284:	00002a08 	.word	0x00002a08

00000288 <frame_dummy>:
     288:	4b0c      	ldr	r3, [pc, #48]	; (2bc <frame_dummy+0x34>)
     28a:	b143      	cbz	r3, 29e <frame_dummy+0x16>
     28c:	480c      	ldr	r0, [pc, #48]	; (2c0 <frame_dummy+0x38>)
     28e:	490d      	ldr	r1, [pc, #52]	; (2c4 <frame_dummy+0x3c>)
     290:	b510      	push	{r4, lr}
     292:	f3af 8000 	nop.w
     296:	480c      	ldr	r0, [pc, #48]	; (2c8 <frame_dummy+0x40>)
     298:	6803      	ldr	r3, [r0, #0]
     29a:	b923      	cbnz	r3, 2a6 <frame_dummy+0x1e>
     29c:	bd10      	pop	{r4, pc}
     29e:	480a      	ldr	r0, [pc, #40]	; (2c8 <frame_dummy+0x40>)
     2a0:	6803      	ldr	r3, [r0, #0]
     2a2:	b933      	cbnz	r3, 2b2 <frame_dummy+0x2a>
     2a4:	4770      	bx	lr
     2a6:	4b09      	ldr	r3, [pc, #36]	; (2cc <frame_dummy+0x44>)
     2a8:	2b00      	cmp	r3, #0
     2aa:	d0f7      	beq.n	29c <frame_dummy+0x14>
     2ac:	e8bd 4010 	ldmia.w	sp!, {r4, lr}
     2b0:	4718      	bx	r3
     2b2:	4b06      	ldr	r3, [pc, #24]	; (2cc <frame_dummy+0x44>)
     2b4:	2b00      	cmp	r3, #0
     2b6:	d0f5      	beq.n	2a4 <frame_dummy+0x1c>
     2b8:	4718      	bx	r3
     2ba:	bf00      	nop
     2bc:	00000000 	.word	0x00000000
     2c0:	00002a08 	.word	0x00002a08
     2c4:	20000b58 	.word	0x20000b58
     2c8:	00002a08 	.word	0x00002a08
     2cc:	00000000 	.word	0x00000000

000002d0 <COMM_Port_Setup>:
	PortGroup *porD = &(por->Group[3]);
	
	//12MHz crystal on board selected mapped to PB22/PB23
	
	/* SERCOM0 Uart Terminal */
	porA->PMUX[2].bit.PMUXE = 3;	//PA04 pad0 Tx
     2d0:	4b2b      	ldr	r3, [pc, #172]	; (380 <COMM_Port_Setup+0xb0>)
     2d2:	f893 2032 	ldrb.w	r2, [r3, #50]	; 0x32
     2d6:	2103      	movs	r1, #3
     2d8:	f361 0203 	bfi	r2, r1, #0, #4
     2dc:	f883 2032 	strb.w	r2, [r3, #50]	; 0x32
	porA->PINCFG[4].bit.PMUXEN = 1;	
     2e0:	f893 2044 	ldrb.w	r2, [r3, #68]	; 0x44
     2e4:	f042 0201 	orr.w	r2, r2, #1
     2e8:	f883 2044 	strb.w	r2, [r3, #68]	; 0x44
	porA->PMUX[2].bit.PMUXO = 3;	//PA05 pad1 Rx
     2ec:	f893 2032 	ldrb.w	r2, [r3, #50]	; 0x32
     2f0:	f361 1207 	bfi	r2, r1, #4, #4
     2f4:	f883 2032 	strb.w	r2, [r3, #50]	; 0x32
	porA->PINCFG[5].bit.PMUXEN = 1;
     2f8:	f893 2045 	ldrb.w	r2, [r3, #69]	; 0x45
     2fc:	f042 0201 	orr.w	r2, r2, #1
     300:	f883 2045 	strb.w	r2, [r3, #69]	; 0x45
		
	/* SERCOM6 SPI to DACs */
	porC->PMUX[2].bit.PMUXE = 2;	//PC04 pad0
     304:	f893 2132 	ldrb.w	r2, [r3, #306]	; 0x132
     308:	2102      	movs	r1, #2
     30a:	f361 0203 	bfi	r2, r1, #0, #4
     30e:	f883 2132 	strb.w	r2, [r3, #306]	; 0x132
	porC->PMUX[2].bit.PMUXO = 2;	//PC05 pad1
     312:	f893 2132 	ldrb.w	r2, [r3, #306]	; 0x132
     316:	f361 1207 	bfi	r2, r1, #4, #4
     31a:	f883 2132 	strb.w	r2, [r3, #306]	; 0x132
	porC->PMUX[3].bit.PMUXE = 2;	//PC06 pad2
     31e:	f893 2133 	ldrb.w	r2, [r3, #307]	; 0x133
     322:	f361 0203 	bfi	r2, r1, #0, #4
     326:	f883 2133 	strb.w	r2, [r3, #307]	; 0x133
	porC->PINCFG[4].bit.PMUXEN = 1;
     32a:	f893 2144 	ldrb.w	r2, [r3, #324]	; 0x144
     32e:	f042 0201 	orr.w	r2, r2, #1
     332:	f883 2144 	strb.w	r2, [r3, #324]	; 0x144
	porC->PINCFG[5].bit.PMUXEN = 1;
     336:	f893 2145 	ldrb.w	r2, [r3, #325]	; 0x145
     33a:	f042 0201 	orr.w	r2, r2, #1
     33e:	f883 2145 	strb.w	r2, [r3, #325]	; 0x145
	porC->PINCFG[6].bit.PMUXEN = 1;
     342:	f893 2146 	ldrb.w	r2, [r3, #326]	; 0x146
     346:	f042 0201 	orr.w	r2, r2, #1
     34a:	f883 2146 	strb.w	r2, [r3, #326]	; 0x146
	porC->DIRSET.reg |= SS0;	//SS0 for 1st DAC
     34e:	f8d3 2108 	ldr.w	r2, [r3, #264]	; 0x108
     352:	f042 0240 	orr.w	r2, r2, #64	; 0x40
     356:	f8c3 2108 	str.w	r2, [r3, #264]	; 0x108
	porC->DIRSET.reg |= SS1;	//SS1 for 2nd DAC
     35a:	f8d3 2108 	ldr.w	r2, [r3, #264]	; 0x108
     35e:	f042 0280 	orr.w	r2, r2, #128	; 0x80
     362:	f8c3 2108 	str.w	r2, [r3, #264]	; 0x108
	porC->OUTSET.reg |= SS0;	//initialize SS0 high
     366:	f8d3 2118 	ldr.w	r2, [r3, #280]	; 0x118
     36a:	f042 0240 	orr.w	r2, r2, #64	; 0x40
     36e:	f8c3 2118 	str.w	r2, [r3, #280]	; 0x118
	porC->OUTSET.reg |= SS1;	//initialize SS1 high
     372:	f8d3 2118 	ldr.w	r2, [r3, #280]	; 0x118
     376:	f042 0280 	orr.w	r2, r2, #128	; 0x80
     37a:	f8c3 2118 	str.w	r2, [r3, #280]	; 0x118
     37e:	4770      	bx	lr
     380:	41008000 	.word	0x41008000

00000384 <terminal_UART_setup>:
/* Setup UART for terminal
*/
void terminal_UART_setup(void){
	Sercom *ser = SERCOM0;
	SercomUsart *uart = &(ser->USART);
	uart->CTRLA.reg = 0;	//enable protected regs
     384:	2200      	movs	r2, #0
     386:	4b27      	ldr	r3, [pc, #156]	; (424 <terminal_UART_setup+0xa0>)
     388:	601a      	str	r2, [r3, #0]
	while(uart->SYNCBUSY.reg){}
     38a:	461a      	mov	r2, r3
     38c:	69d3      	ldr	r3, [r2, #28]
     38e:	2b00      	cmp	r3, #0
     390:	d1fc      	bne.n	38c <terminal_UART_setup+0x8>
	uart->CTRLA.bit.DORD = 1;	//LSB transferred first
     392:	4b24      	ldr	r3, [pc, #144]	; (424 <terminal_UART_setup+0xa0>)
     394:	681a      	ldr	r2, [r3, #0]
     396:	f042 4280 	orr.w	r2, r2, #1073741824	; 0x40000000
     39a:	601a      	str	r2, [r3, #0]
	uart->CTRLA.bit.CMODE = 0;	//asynchronous mode
     39c:	681a      	ldr	r2, [r3, #0]
     39e:	f36f 721c 	bfc	r2, #28, #1
     3a2:	601a      	str	r2, [r3, #0]
	uart->CTRLA.bit.SAMPR = 0;	//16x oversampling using arithmetic
     3a4:	681a      	ldr	r2, [r3, #0]
     3a6:	f36f 324f 	bfc	r2, #13, #3
     3aa:	601a      	str	r2, [r3, #0]
	uart->CTRLA.bit.RXPO = 1;	//RX is pad1 PA05
     3ac:	681a      	ldr	r2, [r3, #0]
     3ae:	2101      	movs	r1, #1
     3b0:	f361 5215 	bfi	r2, r1, #20, #2
     3b4:	601a      	str	r2, [r3, #0]
	uart->CTRLA.bit.TXPO = 2;	//TX is pad0 PA04
     3b6:	681a      	ldr	r2, [r3, #0]
     3b8:	2002      	movs	r0, #2
     3ba:	f360 4211 	bfi	r2, r0, #16, #2
     3be:	601a      	str	r2, [r3, #0]
	uart->CTRLA.bit.MODE = 1;	//uart with internal clock
     3c0:	681a      	ldr	r2, [r3, #0]
     3c2:	f361 0284 	bfi	r2, r1, #2, #3
     3c6:	601a      	str	r2, [r3, #0]
	uart->CTRLB.bit.RXEN = 1;	//enable RX
     3c8:	685a      	ldr	r2, [r3, #4]
     3ca:	f442 3200 	orr.w	r2, r2, #131072	; 0x20000
     3ce:	605a      	str	r2, [r3, #4]
	uart->CTRLB.bit.TXEN = 1;	//enable TX
     3d0:	685a      	ldr	r2, [r3, #4]
     3d2:	f442 3280 	orr.w	r2, r2, #65536	; 0x10000
     3d6:	605a      	str	r2, [r3, #4]
	uart->CTRLB.bit.PMODE = 0;	//even parity mode
     3d8:	685a      	ldr	r2, [r3, #4]
     3da:	f36f 324d 	bfc	r2, #13, #1
     3de:	605a      	str	r2, [r3, #4]
	uart->CTRLB.bit.SBMODE = 0;	//1 stop bit
     3e0:	685a      	ldr	r2, [r3, #4]
     3e2:	f36f 1286 	bfc	r2, #6, #1
     3e6:	605a      	str	r2, [r3, #4]
	uart->CTRLB.bit.CHSIZE = 0;	//8bit char size
     3e8:	685a      	ldr	r2, [r3, #4]
     3ea:	f36f 0202 	bfc	r2, #0, #3
     3ee:	605a      	str	r2, [r3, #4]
	while(uart->SYNCBUSY.reg){}
     3f0:	461a      	mov	r2, r3
     3f2:	69d3      	ldr	r3, [r2, #28]
     3f4:	2b00      	cmp	r3, #0
     3f6:	d1fc      	bne.n	3f2 <terminal_UART_setup+0x6e>
	uart->BAUD.reg = 55470;	//for fbaud 9600 at 1Mhz fref
     3f8:	4b0a      	ldr	r3, [pc, #40]	; (424 <terminal_UART_setup+0xa0>)
     3fa:	f64d 02ae 	movw	r2, #55470	; 0xd8ae
     3fe:	819a      	strh	r2, [r3, #12]
	uart->INTENSET.bit.RXC = 1;	//receive complete interr
     400:	7d9a      	ldrb	r2, [r3, #22]
     402:	f042 0204 	orr.w	r2, r2, #4
     406:	759a      	strb	r2, [r3, #22]
	NVIC->ISER[1] |= 1<<16;	//enable sercom0 RXC int
     408:	4907      	ldr	r1, [pc, #28]	; (428 <terminal_UART_setup+0xa4>)
     40a:	684a      	ldr	r2, [r1, #4]
     40c:	f442 3280 	orr.w	r2, r2, #65536	; 0x10000
     410:	604a      	str	r2, [r1, #4]
	uart->CTRLA.reg |= 1<<1;	//enable
     412:	681a      	ldr	r2, [r3, #0]
     414:	f042 0202 	orr.w	r2, r2, #2
     418:	601a      	str	r2, [r3, #0]
	while(uart->SYNCBUSY.reg){}
     41a:	461a      	mov	r2, r3
     41c:	69d3      	ldr	r3, [r2, #28]
     41e:	2b00      	cmp	r3, #0
     420:	d1fc      	bne.n	41c <terminal_UART_setup+0x98>
}
     422:	4770      	bx	lr
     424:	40003000 	.word	0x40003000
     428:	e000e100 	.word	0xe000e100

0000042c <SERCOM0_2_Handler>:

/* Handler for receiving from terminal UART */
void SERCOM0_2_Handler(void){	//for recieving
	Sercom *ser = SERCOM0;
	SercomUsart *uart = &(ser->USART);
	receive_key = uart->DATA.reg;
     42c:	4b09      	ldr	r3, [pc, #36]	; (454 <SERCOM0_2_Handler+0x28>)
     42e:	6a9b      	ldr	r3, [r3, #40]	; 0x28
     430:	b2db      	uxtb	r3, r3
     432:	4a09      	ldr	r2, [pc, #36]	; (458 <SERCOM0_2_Handler+0x2c>)
     434:	7013      	strb	r3, [r2, #0]
	if(receive_key != 13){
     436:	7813      	ldrb	r3, [r2, #0]
     438:	b2db      	uxtb	r3, r3
     43a:	2b0d      	cmp	r3, #13
     43c:	d008      	beq.n	450 <SERCOM0_2_Handler+0x24>
		terminal_input_Array[receive_count++] = receive_key;
     43e:	4b07      	ldr	r3, [pc, #28]	; (45c <SERCOM0_2_Handler+0x30>)
     440:	681a      	ldr	r2, [r3, #0]
     442:	1c51      	adds	r1, r2, #1
     444:	6019      	str	r1, [r3, #0]
     446:	4b04      	ldr	r3, [pc, #16]	; (458 <SERCOM0_2_Handler+0x2c>)
     448:	781b      	ldrb	r3, [r3, #0]
     44a:	b2db      	uxtb	r3, r3
     44c:	4904      	ldr	r1, [pc, #16]	; (460 <SERCOM0_2_Handler+0x34>)
     44e:	548b      	strb	r3, [r1, r2]
     450:	4770      	bx	lr
     452:	bf00      	nop
     454:	40003000 	.word	0x40003000
     458:	20000bb4 	.word	0x20000bb4
     45c:	20000b70 	.word	0x20000b70
     460:	20000000 	.word	0x20000000

00000464 <SPI_setup>:

/* Setup SPI for DACs*/
void SPI_setup(void){
	Sercom *ser = SERCOM6;
	SercomSpi *spi = &(ser->SPI);
	spi->CTRLA.reg = 0<<1;	//disable first
     464:	2200      	movs	r2, #0
     466:	4b1a      	ldr	r3, [pc, #104]	; (4d0 <SPI_setup+0x6c>)
     468:	601a      	str	r2, [r3, #0]
	while(spi->SYNCBUSY.reg){}
     46a:	461a      	mov	r2, r3
     46c:	69d3      	ldr	r3, [r2, #28]
     46e:	2b00      	cmp	r3, #0
     470:	d1fc      	bne.n	46c <SPI_setup+0x8>
	spi->CTRLA.bit.DORD = 0;	//MSB first needed for AD5308
     472:	4b17      	ldr	r3, [pc, #92]	; (4d0 <SPI_setup+0x6c>)
     474:	681a      	ldr	r2, [r3, #0]
     476:	f36f 729e 	bfc	r2, #30, #1
     47a:	601a      	str	r2, [r3, #0]
	//spi->CTRLA.bit.DORD = 1;	//LSB first needed for AD5308
	spi->CTRLA.bit.DOPO = 0;	//DO=pad0 PC04, SCK=pad1 PC05, SS=pad2 PC06
     47c:	681a      	ldr	r2, [r3, #0]
     47e:	f36f 4211 	bfc	r2, #16, #2
     482:	601a      	str	r2, [r3, #0]
	spi->CTRLA.bit.FORM = 0;	//SPI frame form
     484:	681a      	ldr	r2, [r3, #0]
     486:	f36f 621b 	bfc	r2, #24, #4
     48a:	601a      	str	r2, [r3, #0]
	spi->CTRLA.bit.MODE = 3;	//master mode
     48c:	681a      	ldr	r2, [r3, #0]
     48e:	2103      	movs	r1, #3
     490:	f361 0284 	bfi	r2, r1, #2, #3
     494:	601a      	str	r2, [r3, #0]
	spi->CTRLB.bit.MSSEN = 0;	//software controlled SS
     496:	685a      	ldr	r2, [r3, #4]
     498:	f36f 324d 	bfc	r2, #13, #1
     49c:	605a      	str	r2, [r3, #4]
	spi->CTRLB.bit.CHSIZE = 0;	//8 bit char size
     49e:	685a      	ldr	r2, [r3, #4]
     4a0:	f36f 0202 	bfc	r2, #0, #3
     4a4:	605a      	str	r2, [r3, #4]
	while(spi->SYNCBUSY.reg){}
     4a6:	461a      	mov	r2, r3
     4a8:	69d3      	ldr	r3, [r2, #28]
     4aa:	2b00      	cmp	r3, #0
     4ac:	d1fc      	bne.n	4a8 <SPI_setup+0x44>
	//spi->BAUD.reg = 55470;	//9600bps at 1MHz
	spi->BAUD.reg = 51;	//9600bps at 1MHz
     4ae:	4b08      	ldr	r3, [pc, #32]	; (4d0 <SPI_setup+0x6c>)
     4b0:	2233      	movs	r2, #51	; 0x33
     4b2:	731a      	strb	r2, [r3, #12]
	spi->INTENSET.bit.TXC = 1;	//transmit complete
     4b4:	7d9a      	ldrb	r2, [r3, #22]
     4b6:	f042 0202 	orr.w	r2, r2, #2
     4ba:	759a      	strb	r2, [r3, #22]
	//NVIC->ISER[2] |= 1<<7;	//enable sercom6 TXC int
	spi->CTRLA.reg |= 1<<1;	//enable
     4bc:	681a      	ldr	r2, [r3, #0]
     4be:	f042 0202 	orr.w	r2, r2, #2
     4c2:	601a      	str	r2, [r3, #0]
	while(spi->SYNCBUSY.reg){}
     4c4:	461a      	mov	r2, r3
     4c6:	69d3      	ldr	r3, [r2, #28]
     4c8:	2b00      	cmp	r3, #0
     4ca:	d1fc      	bne.n	4c6 <SPI_setup+0x62>
	
}
     4cc:	4770      	bx	lr
     4ce:	bf00      	nop
     4d0:	43000800 	.word	0x43000800

000004d4 <write_terminal>:
	SercomSpi *spi = &(ser->SPI);
	spi->INTFLAG.bit.TXC = 1;
}*/

/* Writes to terminal using UART */
void write_terminal(char *a){
     4d4:	3801      	subs	r0, #1
	Sercom *ser = SERCOM0;
	SercomUsart *uart = &(ser->USART);
	
	while(*a){
		while(!(uart->INTFLAG.bit.DRE)){}
     4d6:	4b09      	ldr	r3, [pc, #36]	; (4fc <write_terminal+0x28>)
	while(*a){
     4d8:	e008      	b.n	4ec <write_terminal+0x18>
		while(!(uart->INTFLAG.bit.DRE)){}
     4da:	7e1a      	ldrb	r2, [r3, #24]
     4dc:	f012 0f01 	tst.w	r2, #1
     4e0:	d0fb      	beq.n	4da <write_terminal+0x6>
		uart->DATA.reg = *a++;
     4e2:	6299      	str	r1, [r3, #40]	; 0x28
		while((uart->INTFLAG.bit.TXC)==0){}	// waiting for transmit to complete
     4e4:	7e1a      	ldrb	r2, [r3, #24]
     4e6:	f012 0f02 	tst.w	r2, #2
     4ea:	d0fb      	beq.n	4e4 <write_terminal+0x10>
	while(*a){
     4ec:	f810 1f01 	ldrb.w	r1, [r0, #1]!
     4f0:	2900      	cmp	r1, #0
     4f2:	d1f2      	bne.n	4da <write_terminal+0x6>
	}
	uart->DATA.reg = 10;
     4f4:	220a      	movs	r2, #10
     4f6:	4b01      	ldr	r3, [pc, #4]	; (4fc <write_terminal+0x28>)
     4f8:	629a      	str	r2, [r3, #40]	; 0x28
     4fa:	4770      	bx	lr
     4fc:	40003000 	.word	0x40003000

00000500 <write_menu>:
}

void write_menu(char *a){
     500:	3801      	subs	r0, #1
	Sercom *ser = SERCOM0;
	SercomUsart *uart = &(ser->USART);
	
	while(*a != '#'){
		while(!(uart->INTFLAG.bit.DRE)){}
     502:	4b09      	ldr	r3, [pc, #36]	; (528 <write_menu+0x28>)
	while(*a != '#'){
     504:	e008      	b.n	518 <write_menu+0x18>
		while(!(uart->INTFLAG.bit.DRE)){}
     506:	7e1a      	ldrb	r2, [r3, #24]
     508:	f012 0f01 	tst.w	r2, #1
     50c:	d0fb      	beq.n	506 <write_menu+0x6>
		uart->DATA.reg = *a++;
     50e:	6299      	str	r1, [r3, #40]	; 0x28
		while((uart->INTFLAG.bit.TXC)==0){}	// waiting for transmit to complete
     510:	7e1a      	ldrb	r2, [r3, #24]
     512:	f012 0f02 	tst.w	r2, #2
     516:	d0fb      	beq.n	510 <write_menu+0x10>
	while(*a != '#'){
     518:	f810 1f01 	ldrb.w	r1, [r0, #1]!
     51c:	2923      	cmp	r1, #35	; 0x23
     51e:	d1f2      	bne.n	506 <write_menu+0x6>
	}
	uart->DATA.reg = 10;
     520:	220a      	movs	r2, #10
     522:	4b01      	ldr	r3, [pc, #4]	; (528 <write_menu+0x28>)
     524:	629a      	str	r2, [r3, #40]	; 0x28
     526:	4770      	bx	lr
     528:	40003000 	.word	0x40003000

0000052c <write_SPI>:
}

/* Writes through SPI protocol to DACs */
void write_SPI(char *a){
     52c:	b508      	push	{r3, lr}
	SercomSpi *spi = &(ser->SPI);
	Port *por = PORT;
	PortGroup *porB = &(por->Group[1]);
	PortGroup *porC = &(por->Group[2]);
	
	while( j<2 ){
     52e:	4b1a      	ldr	r3, [pc, #104]	; (598 <write_SPI+0x6c>)
     530:	685b      	ldr	r3, [r3, #4]
     532:	2b01      	cmp	r3, #1
     534:	dc14      	bgt.n	560 <write_SPI+0x34>
		
		spi->DATA.reg = DAC_array[j];
     536:	4918      	ldr	r1, [pc, #96]	; (598 <write_SPI+0x6c>)
     538:	4818      	ldr	r0, [pc, #96]	; (59c <write_SPI+0x70>)
     53a:	4b19      	ldr	r3, [pc, #100]	; (5a0 <write_SPI+0x74>)
     53c:	684a      	ldr	r2, [r1, #4]
     53e:	5c82      	ldrb	r2, [r0, r2]
     540:	b2d2      	uxtb	r2, r2
     542:	629a      	str	r2, [r3, #40]	; 0x28
		//spi->DATA.reg = 0xab;	//test
		while(spi->INTFLAG.bit.DRE == 0){}	//wait for DATA reg to be empty
     544:	7e1a      	ldrb	r2, [r3, #24]
     546:	f012 0f01 	tst.w	r2, #1
     54a:	d0fb      	beq.n	544 <write_SPI+0x18>
		while(spi->INTFLAG.bit.TXC == 0){}	//wait for tx to finish
     54c:	7e1a      	ldrb	r2, [r3, #24]
     54e:	f012 0f02 	tst.w	r2, #2
     552:	d0fb      	beq.n	54c <write_SPI+0x20>
		j++;	//increment counter
     554:	684a      	ldr	r2, [r1, #4]
     556:	3201      	adds	r2, #1
     558:	604a      	str	r2, [r1, #4]
	while( j<2 ){
     55a:	684a      	ldr	r2, [r1, #4]
     55c:	2a01      	cmp	r2, #1
     55e:	dded      	ble.n	53c <write_SPI+0x10>
		//porA->OUTCLR.reg = SS;	//pull SS down
		//wait(1);
		//porA->OUTSET.reg = SS;	//pull SS up
		//}
	}
	wait(1);
     560:	2001      	movs	r0, #1
     562:	4b10      	ldr	r3, [pc, #64]	; (5a4 <write_SPI+0x78>)
     564:	4798      	blx	r3
	////// pulse SS (load) to clk data into dacs for TLV only
	if(slaveSel == 0){
     566:	4b10      	ldr	r3, [pc, #64]	; (5a8 <write_SPI+0x7c>)
     568:	681b      	ldr	r3, [r3, #0]
     56a:	b153      	cbz	r3, 582 <write_SPI+0x56>
		porC->OUTCLR.reg = SS0;
		//wait(1);
		porC->OUTSET.reg = SS0;
	}
	else if(slaveSel == 1){
     56c:	4b0e      	ldr	r3, [pc, #56]	; (5a8 <write_SPI+0x7c>)
     56e:	681b      	ldr	r3, [r3, #0]
     570:	2b01      	cmp	r3, #1
     572:	d10c      	bne.n	58e <write_SPI+0x62>
		porB->OUTCLR.reg = SS0;
     574:	4b0d      	ldr	r3, [pc, #52]	; (5ac <write_SPI+0x80>)
     576:	2240      	movs	r2, #64	; 0x40
     578:	f8c3 2094 	str.w	r2, [r3, #148]	; 0x94
		//wait(1);
		porB->OUTSET.reg = SS0;
     57c:	f8c3 2098 	str.w	r2, [r3, #152]	; 0x98
     580:	e005      	b.n	58e <write_SPI+0x62>
		porC->OUTCLR.reg = SS0;
     582:	4b0a      	ldr	r3, [pc, #40]	; (5ac <write_SPI+0x80>)
     584:	2240      	movs	r2, #64	; 0x40
     586:	f8c3 2114 	str.w	r2, [r3, #276]	; 0x114
		porC->OUTSET.reg = SS0;
     58a:	f8c3 2118 	str.w	r2, [r3, #280]	; 0x118
	}
	j = 0;
     58e:	2200      	movs	r2, #0
     590:	4b01      	ldr	r3, [pc, #4]	; (598 <write_SPI+0x6c>)
     592:	605a      	str	r2, [r3, #4]
     594:	bd08      	pop	{r3, pc}
     596:	bf00      	nop
     598:	20000b70 	.word	0x20000b70
     59c:	20000bbc 	.word	0x20000bbc
     5a0:	43000800 	.word	0x43000800
     5a4:	0000105d 	.word	0x0000105d
     5a8:	20000bac 	.word	0x20000bac
     5ac:	41008000 	.word	0x41008000

000005b0 <dacValue>:
	}
}

/* Selects the value written to the DAC after it has been selected */
void dacValue(void){
	if((*(terminal_input_array_ptr+1) >= 48) && (*(terminal_input_array_ptr+1) <= 57)){	//looking for number keys only
     5b0:	4b1d      	ldr	r3, [pc, #116]	; (628 <dacValue+0x78>)
     5b2:	681a      	ldr	r2, [r3, #0]
     5b4:	7853      	ldrb	r3, [r2, #1]
     5b6:	b2db      	uxtb	r3, r3
     5b8:	2b2f      	cmp	r3, #47	; 0x2f
     5ba:	d913      	bls.n	5e4 <dacValue+0x34>
     5bc:	7853      	ldrb	r3, [r2, #1]
     5be:	b2db      	uxtb	r3, r3
     5c0:	2b39      	cmp	r3, #57	; 0x39
     5c2:	d80f      	bhi.n	5e4 <dacValue+0x34>
		if((*(terminal_input_array_ptr+2) >= 48) && (*(terminal_input_array_ptr+2) <= 57)){	//looking for number keys only
     5c4:	7893      	ldrb	r3, [r2, #2]
     5c6:	b2db      	uxtb	r3, r3
     5c8:	2b2f      	cmp	r3, #47	; 0x2f
     5ca:	d90b      	bls.n	5e4 <dacValue+0x34>
     5cc:	7893      	ldrb	r3, [r2, #2]
     5ce:	b2db      	uxtb	r3, r3
     5d0:	2b39      	cmp	r3, #57	; 0x39
     5d2:	d807      	bhi.n	5e4 <dacValue+0x34>
			if((*(terminal_input_array_ptr+3) >= 48) && (*(terminal_input_array_ptr+3) <= 57)){	//looking for number keys only
     5d4:	78d3      	ldrb	r3, [r2, #3]
     5d6:	b2db      	uxtb	r3, r3
     5d8:	2b2f      	cmp	r3, #47	; 0x2f
     5da:	d903      	bls.n	5e4 <dacValue+0x34>
     5dc:	78d3      	ldrb	r3, [r2, #3]
     5de:	b2db      	uxtb	r3, r3
     5e0:	2b39      	cmp	r3, #57	; 0x39
     5e2:	d900      	bls.n	5e6 <dacValue+0x36>
     5e4:	4770      	bx	lr
void dacValue(void){
     5e6:	b500      	push	{lr}
     5e8:	b083      	sub	sp, #12
				volatile int value = (*(terminal_input_array_ptr+3) - 48) * 100;
     5ea:	78d3      	ldrb	r3, [r2, #3]
     5ec:	f1a3 0130 	sub.w	r1, r3, #48	; 0x30
     5f0:	2364      	movs	r3, #100	; 0x64
     5f2:	fb03 f301 	mul.w	r3, r3, r1
     5f6:	9301      	str	r3, [sp, #4]
				value += (*(terminal_input_array_ptr+4) - 48) * 10;
     5f8:	7913      	ldrb	r3, [r2, #4]
     5fa:	9901      	ldr	r1, [sp, #4]
     5fc:	3b30      	subs	r3, #48	; 0x30
     5fe:	eb03 0383 	add.w	r3, r3, r3, lsl #2
     602:	eb01 0343 	add.w	r3, r1, r3, lsl #1
     606:	9301      	str	r3, [sp, #4]
				value += *(terminal_input_array_ptr+5) - 48;
     608:	7953      	ldrb	r3, [r2, #5]
     60a:	9a01      	ldr	r2, [sp, #4]
     60c:	3b30      	subs	r3, #48	; 0x30
     60e:	4413      	add	r3, r2
     610:	9301      	str	r3, [sp, #4]
				DAC_array[1] = value;
     612:	9b01      	ldr	r3, [sp, #4]
     614:	b2db      	uxtb	r3, r3
     616:	4a05      	ldr	r2, [pc, #20]	; (62c <dacValue+0x7c>)
     618:	7053      	strb	r3, [r2, #1]
				//arrDACptr = arrDAC;
				write_SPI(DAC_array_ptr);
     61a:	4b05      	ldr	r3, [pc, #20]	; (630 <dacValue+0x80>)
     61c:	6818      	ldr	r0, [r3, #0]
     61e:	4b05      	ldr	r3, [pc, #20]	; (634 <dacValue+0x84>)
     620:	4798      	blx	r3
			}
		}
	}
	
     622:	b003      	add	sp, #12
     624:	f85d fb04 	ldr.w	pc, [sp], #4
     628:	20000bb8 	.word	0x20000bb8
     62c:	20000bbc 	.word	0x20000bbc
     630:	20000bb0 	.word	0x20000bb0
     634:	0000052d 	.word	0x0000052d

00000638 <DAC_select>:
	if((*(terminal_input_array_ptr+1) >= 48) && (*(terminal_input_array_ptr+1) <= 57)){	//looking for number keys only
     638:	4b1c      	ldr	r3, [pc, #112]	; (6ac <DAC_select+0x74>)
     63a:	681a      	ldr	r2, [r3, #0]
     63c:	7853      	ldrb	r3, [r2, #1]
     63e:	b2db      	uxtb	r3, r3
     640:	2b2f      	cmp	r3, #47	; 0x2f
     642:	d932      	bls.n	6aa <DAC_select+0x72>
     644:	7853      	ldrb	r3, [r2, #1]
     646:	b2db      	uxtb	r3, r3
     648:	2b39      	cmp	r3, #57	; 0x39
     64a:	d82e      	bhi.n	6aa <DAC_select+0x72>
		if((*(terminal_input_array_ptr+2) >= 48) && (*(terminal_input_array_ptr+2) <= 57)){	//looking for number keys only
     64c:	7893      	ldrb	r3, [r2, #2]
     64e:	b2db      	uxtb	r3, r3
     650:	2b2f      	cmp	r3, #47	; 0x2f
     652:	d92a      	bls.n	6aa <DAC_select+0x72>
     654:	7893      	ldrb	r3, [r2, #2]
     656:	b2db      	uxtb	r3, r3
     658:	2b39      	cmp	r3, #57	; 0x39
     65a:	d826      	bhi.n	6aa <DAC_select+0x72>
void DAC_select(void){
     65c:	b500      	push	{lr}
     65e:	b083      	sub	sp, #12
			volatile int zone = (*(terminal_input_array_ptr+1) - 48) * 10;
     660:	7853      	ldrb	r3, [r2, #1]
     662:	3b30      	subs	r3, #48	; 0x30
     664:	eb03 0383 	add.w	r3, r3, r3, lsl #2
     668:	005b      	lsls	r3, r3, #1
     66a:	9301      	str	r3, [sp, #4]
			zone += *(terminal_input_array_ptr+2) - 48;
     66c:	7893      	ldrb	r3, [r2, #2]
     66e:	9a01      	ldr	r2, [sp, #4]
     670:	3b30      	subs	r3, #48	; 0x30
     672:	4413      	add	r3, r2
     674:	9301      	str	r3, [sp, #4]
			if(zone <= 7){
     676:	9b01      	ldr	r3, [sp, #4]
     678:	2b07      	cmp	r3, #7
     67a:	dc0c      	bgt.n	696 <DAC_select+0x5e>
				DAC_array[0] = 2 * zone;	// 2 * zone is to accomodate TLV only
     67c:	9b01      	ldr	r3, [sp, #4]
     67e:	005b      	lsls	r3, r3, #1
     680:	b2db      	uxtb	r3, r3
     682:	4a0b      	ldr	r2, [pc, #44]	; (6b0 <DAC_select+0x78>)
     684:	7013      	strb	r3, [r2, #0]
				slaveSel = 0;
     686:	2200      	movs	r2, #0
     688:	4b0a      	ldr	r3, [pc, #40]	; (6b4 <DAC_select+0x7c>)
     68a:	601a      	str	r2, [r3, #0]
			dacValue();
     68c:	4b0a      	ldr	r3, [pc, #40]	; (6b8 <DAC_select+0x80>)
     68e:	4798      	blx	r3
}
     690:	b003      	add	sp, #12
     692:	f85d fb04 	ldr.w	pc, [sp], #4
				DAC_array[0]= 2 * (zone - 8);	// 2 * zone is to accomodate TLV only
     696:	9b01      	ldr	r3, [sp, #4]
     698:	3b08      	subs	r3, #8
     69a:	005b      	lsls	r3, r3, #1
     69c:	b2db      	uxtb	r3, r3
     69e:	4a04      	ldr	r2, [pc, #16]	; (6b0 <DAC_select+0x78>)
     6a0:	7013      	strb	r3, [r2, #0]
				slaveSel = 1;
     6a2:	2201      	movs	r2, #1
     6a4:	4b03      	ldr	r3, [pc, #12]	; (6b4 <DAC_select+0x7c>)
     6a6:	601a      	str	r2, [r3, #0]
     6a8:	e7f0      	b.n	68c <DAC_select+0x54>
     6aa:	4770      	bx	lr
     6ac:	20000bb8 	.word	0x20000bb8
     6b0:	20000bbc 	.word	0x20000bbc
     6b4:	20000bac 	.word	0x20000bac
     6b8:	000005b1 	.word	0x000005b1

000006bc <Dummy_Handler>:

/**
 * \brief Default interrupt handler for unused IRQs.
 */
void Dummy_Handler(void)
{
     6bc:	e7fe      	b.n	6bc <Dummy_Handler>
	...

000006c0 <Reset_Handler>:
{
     6c0:	b508      	push	{r3, lr}
        if (pSrc != pDest) {
     6c2:	4b17      	ldr	r3, [pc, #92]	; (720 <Reset_Handler+0x60>)
     6c4:	4a17      	ldr	r2, [pc, #92]	; (724 <Reset_Handler+0x64>)
     6c6:	429a      	cmp	r2, r3
     6c8:	d010      	beq.n	6ec <Reset_Handler+0x2c>
                for (; pDest < &_erelocate;) {
     6ca:	4b17      	ldr	r3, [pc, #92]	; (728 <Reset_Handler+0x68>)
     6cc:	4a14      	ldr	r2, [pc, #80]	; (720 <Reset_Handler+0x60>)
     6ce:	429a      	cmp	r2, r3
     6d0:	d20c      	bcs.n	6ec <Reset_Handler+0x2c>
     6d2:	3b01      	subs	r3, #1
     6d4:	1a9b      	subs	r3, r3, r2
     6d6:	f023 0303 	bic.w	r3, r3, #3
     6da:	3304      	adds	r3, #4
     6dc:	4413      	add	r3, r2
     6de:	4911      	ldr	r1, [pc, #68]	; (724 <Reset_Handler+0x64>)
                        *pDest++ = *pSrc++;
     6e0:	f851 0b04 	ldr.w	r0, [r1], #4
     6e4:	f842 0b04 	str.w	r0, [r2], #4
                for (; pDest < &_erelocate;) {
     6e8:	429a      	cmp	r2, r3
     6ea:	d1f9      	bne.n	6e0 <Reset_Handler+0x20>
        for (pDest = &_szero; pDest < &_ezero;) {
     6ec:	4b0f      	ldr	r3, [pc, #60]	; (72c <Reset_Handler+0x6c>)
     6ee:	4a10      	ldr	r2, [pc, #64]	; (730 <Reset_Handler+0x70>)
     6f0:	429a      	cmp	r2, r3
     6f2:	d20a      	bcs.n	70a <Reset_Handler+0x4a>
     6f4:	3b01      	subs	r3, #1
     6f6:	1a9b      	subs	r3, r3, r2
     6f8:	f023 0303 	bic.w	r3, r3, #3
     6fc:	3304      	adds	r3, #4
     6fe:	4413      	add	r3, r2
                *pDest++ = 0;
     700:	2100      	movs	r1, #0
     702:	f842 1b04 	str.w	r1, [r2], #4
        for (pDest = &_szero; pDest < &_ezero;) {
     706:	4293      	cmp	r3, r2
     708:	d1fb      	bne.n	702 <Reset_Handler+0x42>
        SCB->VTOR = ((uint32_t) pSrc & SCB_VTOR_TBLOFF_Msk);
     70a:	4a0a      	ldr	r2, [pc, #40]	; (734 <Reset_Handler+0x74>)
     70c:	4b0a      	ldr	r3, [pc, #40]	; (738 <Reset_Handler+0x78>)
     70e:	f023 037f 	bic.w	r3, r3, #127	; 0x7f
     712:	6093      	str	r3, [r2, #8]
        __libc_init_array();
     714:	4b09      	ldr	r3, [pc, #36]	; (73c <Reset_Handler+0x7c>)
     716:	4798      	blx	r3
        main();
     718:	4b09      	ldr	r3, [pc, #36]	; (740 <Reset_Handler+0x80>)
     71a:	4798      	blx	r3
     71c:	e7fe      	b.n	71c <Reset_Handler+0x5c>
     71e:	bf00      	nop
     720:	20000000 	.word	0x20000000
     724:	00002a08 	.word	0x00002a08
     728:	20000b54 	.word	0x20000b54
     72c:	20000c30 	.word	0x20000c30
     730:	20000b54 	.word	0x20000b54
     734:	e000ed00 	.word	0xe000ed00
     738:	00000000 	.word	0x00000000
     73c:	00002869 	.word	0x00002869
     740:	00001171 	.word	0x00001171

00000744 <SystemInit>:
 *         Initialize the System and update the SystemCoreClock variable.
 */
void SystemInit(void)
{
	// Keep the default device state after reset
	SystemCoreClock = __SYSTEM_CLOCK;
     744:	4a01      	ldr	r2, [pc, #4]	; (74c <SystemInit+0x8>)
     746:	4b02      	ldr	r3, [pc, #8]	; (750 <SystemInit+0xc>)
     748:	601a      	str	r2, [r3, #0]
     74a:	4770      	bx	lr
     74c:	02dc6c00 	.word	0x02dc6c00
     750:	2000000c 	.word	0x2000000c

00000754 <laser_port_setup>:
	PortGroup *porD = &(por->Group[3]);
	
	//12MHz crystal on board selected mapped to PB22/PB23
	
	/* SERCOM2 Laser1 */
	porB->PMUX[13].bit.PMUXE = 2;	//PB26 pad0 Tx
     754:	4b1f      	ldr	r3, [pc, #124]	; (7d4 <laser_port_setup+0x80>)
     756:	f893 20bd 	ldrb.w	r2, [r3, #189]	; 0xbd
     75a:	2102      	movs	r1, #2
     75c:	f361 0203 	bfi	r2, r1, #0, #4
     760:	f883 20bd 	strb.w	r2, [r3, #189]	; 0xbd
	porB->PINCFG[26].bit.PMUXEN = 1;	
     764:	f893 20da 	ldrb.w	r2, [r3, #218]	; 0xda
     768:	f042 0201 	orr.w	r2, r2, #1
     76c:	f883 20da 	strb.w	r2, [r3, #218]	; 0xda
	porB->PMUX[13].bit.PMUXO = 2;	//PB27 pad1 Rx
     770:	f893 20bd 	ldrb.w	r2, [r3, #189]	; 0xbd
     774:	f361 1207 	bfi	r2, r1, #4, #4
     778:	f883 20bd 	strb.w	r2, [r3, #189]	; 0xbd
	porB->PINCFG[27].bit.PMUXEN = 1;
     77c:	f893 20db 	ldrb.w	r2, [r3, #219]	; 0xdb
     780:	f042 0201 	orr.w	r2, r2, #1
     784:	f883 20db 	strb.w	r2, [r3, #219]	; 0xdb
		
	/* SERCOM1 Laser0 */
	porC->PMUX[13].bit.PMUXO = 2;	//PC27 pad0 Tx
     788:	f893 213d 	ldrb.w	r2, [r3, #317]	; 0x13d
     78c:	f361 1207 	bfi	r2, r1, #4, #4
     790:	f883 213d 	strb.w	r2, [r3, #317]	; 0x13d
	porC->PINCFG[27].bit.PMUXEN = 1;	
     794:	f893 215b 	ldrb.w	r2, [r3, #347]	; 0x15b
     798:	f042 0201 	orr.w	r2, r2, #1
     79c:	f883 215b 	strb.w	r2, [r3, #347]	; 0x15b
	porC->PMUX[14].bit.PMUXO = 2;	//PC28 pad1 Rxm
     7a0:	f893 213e 	ldrb.w	r2, [r3, #318]	; 0x13e
     7a4:	f361 1207 	bfi	r2, r1, #4, #4
     7a8:	f883 213e 	strb.w	r2, [r3, #318]	; 0x13e
	
	porC->PINCFG[28].bit.PMUXEN = 1;
     7ac:	f893 215c 	ldrb.w	r2, [r3, #348]	; 0x15c
     7b0:	f042 0201 	orr.w	r2, r2, #1
     7b4:	f883 215c 	strb.w	r2, [r3, #348]	; 0x15c
	
	/* EXTINT[11] for Interlock/key */
	porA->PMUX[13].bit.PMUXO = 0;	//PA27 EXTINT[11]
     7b8:	f893 203d 	ldrb.w	r2, [r3, #61]	; 0x3d
     7bc:	f36f 1207 	bfc	r2, #4, #4
     7c0:	f883 203d 	strb.w	r2, [r3, #61]	; 0x3d
	porA->PINCFG[27].bit.PMUXEN = 1;
     7c4:	f893 205b 	ldrb.w	r2, [r3, #91]	; 0x5b
     7c8:	f042 0201 	orr.w	r2, r2, #1
     7cc:	f883 205b 	strb.w	r2, [r3, #91]	; 0x5b
     7d0:	4770      	bx	lr
     7d2:	bf00      	nop
     7d4:	41008000 	.word	0x41008000

000007d8 <laser0_control_UART_setup>:

/* Setup of UART for laser 0 contorl */
void laser0_control_UART_setup(void){
	Sercom *ser = SERCOM1;
	SercomUsart *uart0 = &(ser->USART);
	uart0->CTRLA.reg = 0;	//enable protected regs
     7d8:	2200      	movs	r2, #0
     7da:	4b27      	ldr	r3, [pc, #156]	; (878 <laser0_control_UART_setup+0xa0>)
     7dc:	601a      	str	r2, [r3, #0]
	while(uart0->SYNCBUSY.reg){}
     7de:	461a      	mov	r2, r3
     7e0:	69d3      	ldr	r3, [r2, #28]
     7e2:	2b00      	cmp	r3, #0
     7e4:	d1fc      	bne.n	7e0 <laser0_control_UART_setup+0x8>
	uart0->CTRLA.bit.DORD = 1;	//LSB transferred first
     7e6:	4b24      	ldr	r3, [pc, #144]	; (878 <laser0_control_UART_setup+0xa0>)
     7e8:	681a      	ldr	r2, [r3, #0]
     7ea:	f042 4280 	orr.w	r2, r2, #1073741824	; 0x40000000
     7ee:	601a      	str	r2, [r3, #0]
	uart0->CTRLA.bit.CMODE = 0;	//asynchronous mode
     7f0:	681a      	ldr	r2, [r3, #0]
     7f2:	f36f 721c 	bfc	r2, #28, #1
     7f6:	601a      	str	r2, [r3, #0]
	uart0->CTRLA.bit.SAMPR = 0;	//16x oversampling using arithmetic
     7f8:	681a      	ldr	r2, [r3, #0]
     7fa:	f36f 324f 	bfc	r2, #13, #3
     7fe:	601a      	str	r2, [r3, #0]
	uart0->CTRLA.bit.RXPO = 1;	//RX is pad1 PC28
     800:	681a      	ldr	r2, [r3, #0]
     802:	2101      	movs	r1, #1
     804:	f361 5215 	bfi	r2, r1, #20, #2
     808:	601a      	str	r2, [r3, #0]
	uart0->CTRLA.bit.TXPO = 2;	//TX is pad0 PC27
     80a:	681a      	ldr	r2, [r3, #0]
     80c:	2002      	movs	r0, #2
     80e:	f360 4211 	bfi	r2, r0, #16, #2
     812:	601a      	str	r2, [r3, #0]
	uart0->CTRLA.bit.MODE = 1;	//uart with internal clock
     814:	681a      	ldr	r2, [r3, #0]
     816:	f361 0284 	bfi	r2, r1, #2, #3
     81a:	601a      	str	r2, [r3, #0]
	uart0->CTRLB.bit.RXEN = 1;	//enable RX
     81c:	685a      	ldr	r2, [r3, #4]
     81e:	f442 3200 	orr.w	r2, r2, #131072	; 0x20000
     822:	605a      	str	r2, [r3, #4]
	uart0->CTRLB.bit.TXEN = 1;	//enable TX
     824:	685a      	ldr	r2, [r3, #4]
     826:	f442 3280 	orr.w	r2, r2, #65536	; 0x10000
     82a:	605a      	str	r2, [r3, #4]
	uart0->CTRLB.bit.PMODE = 0;	//even parity mode
     82c:	685a      	ldr	r2, [r3, #4]
     82e:	f36f 324d 	bfc	r2, #13, #1
     832:	605a      	str	r2, [r3, #4]
	uart0->CTRLB.bit.SBMODE = 0;	//1 stop bit
     834:	685a      	ldr	r2, [r3, #4]
     836:	f36f 1286 	bfc	r2, #6, #1
     83a:	605a      	str	r2, [r3, #4]
	uart0->CTRLB.bit.CHSIZE = 0;	//8bit char size
     83c:	685a      	ldr	r2, [r3, #4]
     83e:	f36f 0202 	bfc	r2, #0, #3
     842:	605a      	str	r2, [r3, #4]
	while(uart0->SYNCBUSY.reg){}
     844:	461a      	mov	r2, r3
     846:	69d3      	ldr	r3, [r2, #28]
     848:	2b00      	cmp	r3, #0
     84a:	d1fc      	bne.n	846 <laser0_control_UART_setup+0x6e>
	uart0->BAUD.reg = 63858;	//for fbaud 19200 at 12Mhz fref
     84c:	4b0a      	ldr	r3, [pc, #40]	; (878 <laser0_control_UART_setup+0xa0>)
     84e:	f64f 1272 	movw	r2, #63858	; 0xf972
     852:	819a      	strh	r2, [r3, #12]
	uart0->INTENSET.bit.RXC = 1;	//receive complete interr
     854:	7d9a      	ldrb	r2, [r3, #22]
     856:	f042 0204 	orr.w	r2, r2, #4
     85a:	759a      	strb	r2, [r3, #22]
	NVIC->ISER[1] |= 1<<20;	//enable sercom1 RXC int
     85c:	4907      	ldr	r1, [pc, #28]	; (87c <laser0_control_UART_setup+0xa4>)
     85e:	684a      	ldr	r2, [r1, #4]
     860:	f442 1280 	orr.w	r2, r2, #1048576	; 0x100000
     864:	604a      	str	r2, [r1, #4]
	uart0->CTRLA.reg |= 1<<1;	//enable
     866:	681a      	ldr	r2, [r3, #0]
     868:	f042 0202 	orr.w	r2, r2, #2
     86c:	601a      	str	r2, [r3, #0]
	while(uart0->SYNCBUSY.reg){}
     86e:	461a      	mov	r2, r3
     870:	69d3      	ldr	r3, [r2, #28]
     872:	2b00      	cmp	r3, #0
     874:	d1fc      	bne.n	870 <laser0_control_UART_setup+0x98>
	
}
     876:	4770      	bx	lr
     878:	40003400 	.word	0x40003400
     87c:	e000e100 	.word	0xe000e100

00000880 <laser1_control_UART_setup>:

/* Setup of UART for laser 1 contorl */
void laser1_control_UART_setup(void){
 	Sercom *ser = SERCOM2;
	SercomUsart *uart1 = &(ser->USART);
	uart1->CTRLA.reg = 0;	//enable protected regs
     880:	2200      	movs	r2, #0
     882:	4b27      	ldr	r3, [pc, #156]	; (920 <laser1_control_UART_setup+0xa0>)
     884:	601a      	str	r2, [r3, #0]
	while(uart1->SYNCBUSY.reg){}
     886:	461a      	mov	r2, r3
     888:	69d3      	ldr	r3, [r2, #28]
     88a:	2b00      	cmp	r3, #0
     88c:	d1fc      	bne.n	888 <laser1_control_UART_setup+0x8>
	uart1->CTRLA.bit.DORD = 1;	//LSB transferred first
     88e:	4b24      	ldr	r3, [pc, #144]	; (920 <laser1_control_UART_setup+0xa0>)
     890:	681a      	ldr	r2, [r3, #0]
     892:	f042 4280 	orr.w	r2, r2, #1073741824	; 0x40000000
     896:	601a      	str	r2, [r3, #0]
	uart1->CTRLA.bit.CMODE = 0;	//asynchronous mode
     898:	681a      	ldr	r2, [r3, #0]
     89a:	f36f 721c 	bfc	r2, #28, #1
     89e:	601a      	str	r2, [r3, #0]
	uart1->CTRLA.bit.SAMPR = 0;	//16x oversampling using arithmetic
     8a0:	681a      	ldr	r2, [r3, #0]
     8a2:	f36f 324f 	bfc	r2, #13, #3
     8a6:	601a      	str	r2, [r3, #0]
	uart1->CTRLA.bit.RXPO = 1;	//RX is pad1 PB31	//pB17(testing)
     8a8:	681a      	ldr	r2, [r3, #0]
     8aa:	2101      	movs	r1, #1
     8ac:	f361 5215 	bfi	r2, r1, #20, #2
     8b0:	601a      	str	r2, [r3, #0]
	uart1->CTRLA.bit.TXPO = 2;	//TX is pad0 PB30	//pB16(testing)
     8b2:	681a      	ldr	r2, [r3, #0]
     8b4:	2002      	movs	r0, #2
     8b6:	f360 4211 	bfi	r2, r0, #16, #2
     8ba:	601a      	str	r2, [r3, #0]
	uart1->CTRLA.bit.MODE = 1;	//uart with internal clock
     8bc:	681a      	ldr	r2, [r3, #0]
     8be:	f361 0284 	bfi	r2, r1, #2, #3
     8c2:	601a      	str	r2, [r3, #0]
	uart1->CTRLB.bit.RXEN = 1;	//enable RX
     8c4:	685a      	ldr	r2, [r3, #4]
     8c6:	f442 3200 	orr.w	r2, r2, #131072	; 0x20000
     8ca:	605a      	str	r2, [r3, #4]
	uart1->CTRLB.bit.TXEN = 1;	//enable TX
     8cc:	685a      	ldr	r2, [r3, #4]
     8ce:	f442 3280 	orr.w	r2, r2, #65536	; 0x10000
     8d2:	605a      	str	r2, [r3, #4]
	uart1->CTRLB.bit.PMODE = 0;	//even parity mode
     8d4:	685a      	ldr	r2, [r3, #4]
     8d6:	f36f 324d 	bfc	r2, #13, #1
     8da:	605a      	str	r2, [r3, #4]
	uart1->CTRLB.bit.SBMODE = 0;	//1 stop bit
     8dc:	685a      	ldr	r2, [r3, #4]
     8de:	f36f 1286 	bfc	r2, #6, #1
     8e2:	605a      	str	r2, [r3, #4]
	uart1->CTRLB.bit.CHSIZE = 0;	//8bit char size
     8e4:	685a      	ldr	r2, [r3, #4]
     8e6:	f36f 0202 	bfc	r2, #0, #3
     8ea:	605a      	str	r2, [r3, #4]
	while(uart1->SYNCBUSY.reg){}
     8ec:	461a      	mov	r2, r3
     8ee:	69d3      	ldr	r3, [r2, #28]
     8f0:	2b00      	cmp	r3, #0
     8f2:	d1fc      	bne.n	8ee <laser1_control_UART_setup+0x6e>
	uart1->BAUD.reg = 63858;	//for fbaud 19200 at 12Mhz fref
     8f4:	4b0a      	ldr	r3, [pc, #40]	; (920 <laser1_control_UART_setup+0xa0>)
     8f6:	f64f 1272 	movw	r2, #63858	; 0xf972
     8fa:	819a      	strh	r2, [r3, #12]
	uart1->INTENSET.bit.RXC = 1;	//receive complete interr
     8fc:	7d9a      	ldrb	r2, [r3, #22]
     8fe:	f042 0204 	orr.w	r2, r2, #4
     902:	759a      	strb	r2, [r3, #22]
	NVIC->ISER[2] |= 1<<12;	//enable sercom7 RXC int
     904:	4907      	ldr	r1, [pc, #28]	; (924 <laser1_control_UART_setup+0xa4>)
     906:	688a      	ldr	r2, [r1, #8]
     908:	f442 5280 	orr.w	r2, r2, #4096	; 0x1000
     90c:	608a      	str	r2, [r1, #8]
	uart1->CTRLA.reg |= 1<<1;	//enable
     90e:	681a      	ldr	r2, [r3, #0]
     910:	f042 0202 	orr.w	r2, r2, #2
     914:	601a      	str	r2, [r3, #0]
	while(uart1->SYNCBUSY.reg){}
     916:	461a      	mov	r2, r3
     918:	69d3      	ldr	r3, [r2, #28]
     91a:	2b00      	cmp	r3, #0
     91c:	d1fc      	bne.n	918 <laser1_control_UART_setup+0x98>
	
}
     91e:	4770      	bx	lr
     920:	41012000 	.word	0x41012000
     924:	e000e100 	.word	0xe000e100

00000928 <SERCOM2_2_Handler>:



/* Handler for laser 1 rxc */
void SERCOM2_2_Handler(void){
     928:	b508      	push	{r3, lr}
	Sercom *ser = SERCOM2;
	SercomUsart *uart1 = &(ser->USART);
	static int i = 0;
	if(uart1->DATA.reg != 13){
     92a:	4b0b      	ldr	r3, [pc, #44]	; (958 <SERCOM2_2_Handler+0x30>)
     92c:	6a9b      	ldr	r3, [r3, #40]	; 0x28
     92e:	2b0d      	cmp	r3, #13
     930:	d009      	beq.n	946 <SERCOM2_2_Handler+0x1e>
		laser1_response_array[i++] = uart1->DATA.reg;
     932:	4b0a      	ldr	r3, [pc, #40]	; (95c <SERCOM2_2_Handler+0x34>)
     934:	681a      	ldr	r2, [r3, #0]
     936:	1c51      	adds	r1, r2, #1
     938:	6019      	str	r1, [r3, #0]
     93a:	4b07      	ldr	r3, [pc, #28]	; (958 <SERCOM2_2_Handler+0x30>)
     93c:	6a9b      	ldr	r3, [r3, #40]	; 0x28
     93e:	b2db      	uxtb	r3, r3
     940:	4907      	ldr	r1, [pc, #28]	; (960 <SERCOM2_2_Handler+0x38>)
     942:	548b      	strb	r3, [r1, r2]
     944:	bd08      	pop	{r3, pc}
	}
	else{
		i = 0;
     946:	2200      	movs	r2, #0
     948:	4b04      	ldr	r3, [pc, #16]	; (95c <SERCOM2_2_Handler+0x34>)
     94a:	601a      	str	r2, [r3, #0]
		write_terminal(laser1_response_array_ptr);
     94c:	4b05      	ldr	r3, [pc, #20]	; (964 <SERCOM2_2_Handler+0x3c>)
     94e:	6818      	ldr	r0, [r3, #0]
     950:	4b05      	ldr	r3, [pc, #20]	; (968 <SERCOM2_2_Handler+0x40>)
     952:	4798      	blx	r3
     954:	bd08      	pop	{r3, pc}
     956:	bf00      	nop
     958:	41012000 	.word	0x41012000
     95c:	20000b78 	.word	0x20000b78
     960:	20000bc0 	.word	0x20000bc0
     964:	20000bd4 	.word	0x20000bd4
     968:	000004d5 	.word	0x000004d5

0000096c <SERCOM1_2_Handler>:
	}
}

/* Handler for laser 0 rxc */
void SERCOM1_2_Handler(void){
     96c:	b508      	push	{r3, lr}
	Sercom *ser = SERCOM1;
	SercomUsart *uart0 = &(ser->USART);
	static int i = 0;
	if(uart0->DATA.reg != 13){
     96e:	4b0b      	ldr	r3, [pc, #44]	; (99c <SERCOM1_2_Handler+0x30>)
     970:	6a9b      	ldr	r3, [r3, #40]	; 0x28
     972:	2b0d      	cmp	r3, #13
     974:	d009      	beq.n	98a <SERCOM1_2_Handler+0x1e>
		laser0_response_array[i++] = uart0->DATA.reg;
     976:	4b0a      	ldr	r3, [pc, #40]	; (9a0 <SERCOM1_2_Handler+0x34>)
     978:	685a      	ldr	r2, [r3, #4]
     97a:	1c51      	adds	r1, r2, #1
     97c:	6059      	str	r1, [r3, #4]
     97e:	4b07      	ldr	r3, [pc, #28]	; (99c <SERCOM1_2_Handler+0x30>)
     980:	6a9b      	ldr	r3, [r3, #40]	; 0x28
     982:	b2db      	uxtb	r3, r3
     984:	4907      	ldr	r1, [pc, #28]	; (9a4 <SERCOM1_2_Handler+0x38>)
     986:	548b      	strb	r3, [r1, r2]
     988:	bd08      	pop	{r3, pc}
	}
	else{
		i = 0;
     98a:	2200      	movs	r2, #0
     98c:	4b04      	ldr	r3, [pc, #16]	; (9a0 <SERCOM1_2_Handler+0x34>)
     98e:	605a      	str	r2, [r3, #4]
		write_terminal(laser0_response_array_ptr);
     990:	4b05      	ldr	r3, [pc, #20]	; (9a8 <SERCOM1_2_Handler+0x3c>)
     992:	6818      	ldr	r0, [r3, #0]
     994:	4b05      	ldr	r3, [pc, #20]	; (9ac <SERCOM1_2_Handler+0x40>)
     996:	4798      	blx	r3
     998:	bd08      	pop	{r3, pc}
     99a:	bf00      	nop
     99c:	40003400 	.word	0x40003400
     9a0:	20000b78 	.word	0x20000b78
     9a4:	20000bd8 	.word	0x20000bd8
     9a8:	20000bf0 	.word	0x20000bf0
     9ac:	000004d5 	.word	0x000004d5

000009b0 <write_laser>:
* Note all commands to laser are terminated by carriage return ASCI 13 
* Note all arguments are delimited by space ASCI 32 
* Note there are no arguments when getting laser info
*/
void write_laser(char a, char *b){
	if(a == '0'){
     9b0:	2830      	cmp	r0, #48	; 0x30
     9b2:	d002      	beq.n	9ba <write_laser+0xa>
			while((uart0->INTFLAG.bit.TXC)==0){}	// waiting for transmit to complete
		}
		//uart0->DATA.reg = 13;
	}
	
	else if(a == '1'){
     9b4:	2831      	cmp	r0, #49	; 0x31
     9b6:	d011      	beq.n	9dc <write_laser+0x2c>
     9b8:	4770      	bx	lr
     9ba:	3901      	subs	r1, #1
			while(!(uart0->INTFLAG.bit.DRE)){}
     9bc:	4b10      	ldr	r3, [pc, #64]	; (a00 <write_laser+0x50>)
     9be:	e008      	b.n	9d2 <write_laser+0x22>
     9c0:	7e1a      	ldrb	r2, [r3, #24]
     9c2:	f012 0f01 	tst.w	r2, #1
     9c6:	d0fb      	beq.n	9c0 <write_laser+0x10>
			uart0->DATA.reg = *b++;
     9c8:	6298      	str	r0, [r3, #40]	; 0x28
			while((uart0->INTFLAG.bit.TXC)==0){}	// waiting for transmit to complete
     9ca:	7e1a      	ldrb	r2, [r3, #24]
     9cc:	f012 0f02 	tst.w	r2, #2
     9d0:	d0fb      	beq.n	9ca <write_laser+0x1a>
		while(*b){
     9d2:	f811 0f01 	ldrb.w	r0, [r1, #1]!
     9d6:	2800      	cmp	r0, #0
     9d8:	d1f2      	bne.n	9c0 <write_laser+0x10>
     9da:	4770      	bx	lr
     9dc:	3901      	subs	r1, #1
 		Sercom *ser = SERCOM2;
		SercomUsart *uart1 = &(ser->USART);
		 
		while(*b){
			while(!(uart1->INTFLAG.bit.DRE)){}
     9de:	4b09      	ldr	r3, [pc, #36]	; (a04 <write_laser+0x54>)
     9e0:	e008      	b.n	9f4 <write_laser+0x44>
     9e2:	7e1a      	ldrb	r2, [r3, #24]
     9e4:	f012 0f01 	tst.w	r2, #1
     9e8:	d0fb      	beq.n	9e2 <write_laser+0x32>
			uart1->DATA.reg = *b++;
     9ea:	6298      	str	r0, [r3, #40]	; 0x28
			while((uart1->INTFLAG.bit.TXC)==0){}	// waiting for transmit to complete
     9ec:	7e1a      	ldrb	r2, [r3, #24]
     9ee:	f012 0f02 	tst.w	r2, #2
     9f2:	d0fb      	beq.n	9ec <write_laser+0x3c>
		while(*b){
     9f4:	f811 0f01 	ldrb.w	r0, [r1, #1]!
     9f8:	2800      	cmp	r0, #0
     9fa:	d1f2      	bne.n	9e2 <write_laser+0x32>
     9fc:	e7dc      	b.n	9b8 <write_laser+0x8>
     9fe:	bf00      	nop
     a00:	40003400 	.word	0x40003400
     a04:	41012000 	.word	0x41012000

00000a08 <laser_info_com>:
void laser_info_com(void){
     a08:	b508      	push	{r3, lr}
	char temp = *(terminal_input_array_ptr+2);
     a0a:	4b72      	ldr	r3, [pc, #456]	; (bd4 <laser_info_com+0x1cc>)
     a0c:	6819      	ldr	r1, [r3, #0]
     a0e:	788b      	ldrb	r3, [r1, #2]
     a10:	b2db      	uxtb	r3, r3
	if(*(terminal_input_array_ptr+1) == '0'){	
     a12:	784a      	ldrb	r2, [r1, #1]
     a14:	b2d2      	uxtb	r2, r2
     a16:	2a30      	cmp	r2, #48	; 0x30
     a18:	d005      	beq.n	a26 <laser_info_com+0x1e>
	if(*(terminal_input_array_ptr+1) == '1'){	
     a1a:	784a      	ldrb	r2, [r1, #1]
     a1c:	b2d2      	uxtb	r2, r2
     a1e:	2a31      	cmp	r2, #49	; 0x31
     a20:	f000 80be 	beq.w	ba0 <laser_info_com+0x198>
     a24:	bd08      	pop	{r3, pc}
		switch(temp){
     a26:	f1a3 0230 	sub.w	r2, r3, #48	; 0x30
     a2a:	2a08      	cmp	r2, #8
     a2c:	d8f5      	bhi.n	a1a <laser_info_com+0x12>
     a2e:	e8df f012 	tbh	[pc, r2, lsl #1]
     a32:	0009      	.short	0x0009
     a34:	002f001c 	.word	0x002f001c
     a38:	00550042 	.word	0x00550042
     a3c:	007b0068 	.word	0x007b0068
     a40:	00a3008f 	.word	0x00a3008f
			laser_command_ptr = laser_Icommand0;
     a44:	4964      	ldr	r1, [pc, #400]	; (bd8 <laser_info_com+0x1d0>)
     a46:	4b65      	ldr	r3, [pc, #404]	; (bdc <laser_info_com+0x1d4>)
     a48:	6019      	str	r1, [r3, #0]
			write_laser('0', laser_command_ptr);
     a4a:	2030      	movs	r0, #48	; 0x30
     a4c:	4b64      	ldr	r3, [pc, #400]	; (be0 <laser_info_com+0x1d8>)
     a4e:	4798      	blx	r3
	if(*(terminal_input_array_ptr+1) == '1'){	
     a50:	4b60      	ldr	r3, [pc, #384]	; (bd4 <laser_info_com+0x1cc>)
     a52:	681b      	ldr	r3, [r3, #0]
     a54:	785b      	ldrb	r3, [r3, #1]
     a56:	b2db      	uxtb	r3, r3
     a58:	2b31      	cmp	r3, #49	; 0x31
     a5a:	d1e3      	bne.n	a24 <laser_info_com+0x1c>
			laser_command_ptr = laser_Icommand0;
     a5c:	495e      	ldr	r1, [pc, #376]	; (bd8 <laser_info_com+0x1d0>)
     a5e:	4b5f      	ldr	r3, [pc, #380]	; (bdc <laser_info_com+0x1d4>)
     a60:	6019      	str	r1, [r3, #0]
			write_laser('1', laser_command_ptr);
     a62:	2031      	movs	r0, #49	; 0x31
     a64:	4b5e      	ldr	r3, [pc, #376]	; (be0 <laser_info_com+0x1d8>)
     a66:	4798      	blx	r3
			break;
     a68:	bd08      	pop	{r3, pc}
			laser_command_ptr = laser_Icommand1;
     a6a:	495e      	ldr	r1, [pc, #376]	; (be4 <laser_info_com+0x1dc>)
     a6c:	4b5b      	ldr	r3, [pc, #364]	; (bdc <laser_info_com+0x1d4>)
     a6e:	6019      	str	r1, [r3, #0]
			write_laser('0', laser_command_ptr);
     a70:	2030      	movs	r0, #48	; 0x30
     a72:	4b5b      	ldr	r3, [pc, #364]	; (be0 <laser_info_com+0x1d8>)
     a74:	4798      	blx	r3
	if(*(terminal_input_array_ptr+1) == '1'){	
     a76:	4b57      	ldr	r3, [pc, #348]	; (bd4 <laser_info_com+0x1cc>)
     a78:	681b      	ldr	r3, [r3, #0]
     a7a:	785b      	ldrb	r3, [r3, #1]
     a7c:	b2db      	uxtb	r3, r3
     a7e:	2b31      	cmp	r3, #49	; 0x31
     a80:	d1d0      	bne.n	a24 <laser_info_com+0x1c>
			laser_command_ptr = laser_Icommand1;
     a82:	4958      	ldr	r1, [pc, #352]	; (be4 <laser_info_com+0x1dc>)
     a84:	4b55      	ldr	r3, [pc, #340]	; (bdc <laser_info_com+0x1d4>)
     a86:	6019      	str	r1, [r3, #0]
			write_laser('1', laser_command_ptr);
     a88:	2031      	movs	r0, #49	; 0x31
     a8a:	4b55      	ldr	r3, [pc, #340]	; (be0 <laser_info_com+0x1d8>)
     a8c:	4798      	blx	r3
			break;
     a8e:	bd08      	pop	{r3, pc}
			laser_command_ptr = laser_Icommand2;
     a90:	4955      	ldr	r1, [pc, #340]	; (be8 <laser_info_com+0x1e0>)
     a92:	4b52      	ldr	r3, [pc, #328]	; (bdc <laser_info_com+0x1d4>)
     a94:	6019      	str	r1, [r3, #0]
			write_laser('0', laser_command_ptr);
     a96:	2030      	movs	r0, #48	; 0x30
     a98:	4b51      	ldr	r3, [pc, #324]	; (be0 <laser_info_com+0x1d8>)
     a9a:	4798      	blx	r3
	if(*(terminal_input_array_ptr+1) == '1'){	
     a9c:	4b4d      	ldr	r3, [pc, #308]	; (bd4 <laser_info_com+0x1cc>)
     a9e:	681b      	ldr	r3, [r3, #0]
     aa0:	785b      	ldrb	r3, [r3, #1]
     aa2:	b2db      	uxtb	r3, r3
     aa4:	2b31      	cmp	r3, #49	; 0x31
     aa6:	d1bd      	bne.n	a24 <laser_info_com+0x1c>
			laser_command_ptr = laser_Icommand2;
     aa8:	494f      	ldr	r1, [pc, #316]	; (be8 <laser_info_com+0x1e0>)
     aaa:	4b4c      	ldr	r3, [pc, #304]	; (bdc <laser_info_com+0x1d4>)
     aac:	6019      	str	r1, [r3, #0]
			write_laser('1', laser_command_ptr);
     aae:	2031      	movs	r0, #49	; 0x31
     ab0:	4b4b      	ldr	r3, [pc, #300]	; (be0 <laser_info_com+0x1d8>)
     ab2:	4798      	blx	r3
			break;
     ab4:	bd08      	pop	{r3, pc}
			laser_command_ptr = laser_Icommand3;
     ab6:	494d      	ldr	r1, [pc, #308]	; (bec <laser_info_com+0x1e4>)
     ab8:	4b48      	ldr	r3, [pc, #288]	; (bdc <laser_info_com+0x1d4>)
     aba:	6019      	str	r1, [r3, #0]
			write_laser('0', laser_command_ptr);
     abc:	2030      	movs	r0, #48	; 0x30
     abe:	4b48      	ldr	r3, [pc, #288]	; (be0 <laser_info_com+0x1d8>)
     ac0:	4798      	blx	r3
	if(*(terminal_input_array_ptr+1) == '1'){	
     ac2:	4b44      	ldr	r3, [pc, #272]	; (bd4 <laser_info_com+0x1cc>)
     ac4:	681b      	ldr	r3, [r3, #0]
     ac6:	785b      	ldrb	r3, [r3, #1]
     ac8:	b2db      	uxtb	r3, r3
     aca:	2b31      	cmp	r3, #49	; 0x31
     acc:	d1aa      	bne.n	a24 <laser_info_com+0x1c>
			laser_command_ptr = laser_Icommand3;
     ace:	4947      	ldr	r1, [pc, #284]	; (bec <laser_info_com+0x1e4>)
     ad0:	4b42      	ldr	r3, [pc, #264]	; (bdc <laser_info_com+0x1d4>)
     ad2:	6019      	str	r1, [r3, #0]
			write_laser('1', laser_command_ptr);
     ad4:	2031      	movs	r0, #49	; 0x31
     ad6:	4b42      	ldr	r3, [pc, #264]	; (be0 <laser_info_com+0x1d8>)
     ad8:	4798      	blx	r3
			break;
     ada:	bd08      	pop	{r3, pc}
			laser_command_ptr = laser_Icommand4;
     adc:	4944      	ldr	r1, [pc, #272]	; (bf0 <laser_info_com+0x1e8>)
     ade:	4b3f      	ldr	r3, [pc, #252]	; (bdc <laser_info_com+0x1d4>)
     ae0:	6019      	str	r1, [r3, #0]
			write_laser('0', laser_command_ptr);
     ae2:	2030      	movs	r0, #48	; 0x30
     ae4:	4b3e      	ldr	r3, [pc, #248]	; (be0 <laser_info_com+0x1d8>)
     ae6:	4798      	blx	r3
	if(*(terminal_input_array_ptr+1) == '1'){	
     ae8:	4b3a      	ldr	r3, [pc, #232]	; (bd4 <laser_info_com+0x1cc>)
     aea:	681b      	ldr	r3, [r3, #0]
     aec:	785b      	ldrb	r3, [r3, #1]
     aee:	b2db      	uxtb	r3, r3
     af0:	2b31      	cmp	r3, #49	; 0x31
     af2:	d197      	bne.n	a24 <laser_info_com+0x1c>
			laser_command_ptr = laser_Icommand4;
     af4:	493e      	ldr	r1, [pc, #248]	; (bf0 <laser_info_com+0x1e8>)
     af6:	4b39      	ldr	r3, [pc, #228]	; (bdc <laser_info_com+0x1d4>)
     af8:	6019      	str	r1, [r3, #0]
			write_laser('1', laser_command_ptr);
     afa:	2031      	movs	r0, #49	; 0x31
     afc:	4b38      	ldr	r3, [pc, #224]	; (be0 <laser_info_com+0x1d8>)
     afe:	4798      	blx	r3
			break;
     b00:	bd08      	pop	{r3, pc}
			laser_command_ptr = laser_Icommand5;
     b02:	493c      	ldr	r1, [pc, #240]	; (bf4 <laser_info_com+0x1ec>)
     b04:	4b35      	ldr	r3, [pc, #212]	; (bdc <laser_info_com+0x1d4>)
     b06:	6019      	str	r1, [r3, #0]
			write_laser('0', laser_command_ptr);
     b08:	2030      	movs	r0, #48	; 0x30
     b0a:	4b35      	ldr	r3, [pc, #212]	; (be0 <laser_info_com+0x1d8>)
     b0c:	4798      	blx	r3
	if(*(terminal_input_array_ptr+1) == '1'){	
     b0e:	4b31      	ldr	r3, [pc, #196]	; (bd4 <laser_info_com+0x1cc>)
     b10:	681b      	ldr	r3, [r3, #0]
     b12:	785b      	ldrb	r3, [r3, #1]
     b14:	b2db      	uxtb	r3, r3
     b16:	2b31      	cmp	r3, #49	; 0x31
     b18:	d184      	bne.n	a24 <laser_info_com+0x1c>
			laser_command_ptr = laser_Icommand5;
     b1a:	4936      	ldr	r1, [pc, #216]	; (bf4 <laser_info_com+0x1ec>)
     b1c:	4b2f      	ldr	r3, [pc, #188]	; (bdc <laser_info_com+0x1d4>)
     b1e:	6019      	str	r1, [r3, #0]
			write_laser('1', laser_command_ptr);
     b20:	2031      	movs	r0, #49	; 0x31
     b22:	4b2f      	ldr	r3, [pc, #188]	; (be0 <laser_info_com+0x1d8>)
     b24:	4798      	blx	r3
			break;
     b26:	bd08      	pop	{r3, pc}
			laser_command_ptr = laser_Icommand6;
     b28:	4933      	ldr	r1, [pc, #204]	; (bf8 <laser_info_com+0x1f0>)
     b2a:	4b2c      	ldr	r3, [pc, #176]	; (bdc <laser_info_com+0x1d4>)
     b2c:	6019      	str	r1, [r3, #0]
			write_laser('0', laser_command_ptr);
     b2e:	2030      	movs	r0, #48	; 0x30
     b30:	4b2b      	ldr	r3, [pc, #172]	; (be0 <laser_info_com+0x1d8>)
     b32:	4798      	blx	r3
	if(*(terminal_input_array_ptr+1) == '1'){	
     b34:	4b27      	ldr	r3, [pc, #156]	; (bd4 <laser_info_com+0x1cc>)
     b36:	681b      	ldr	r3, [r3, #0]
     b38:	785b      	ldrb	r3, [r3, #1]
     b3a:	b2db      	uxtb	r3, r3
     b3c:	2b31      	cmp	r3, #49	; 0x31
     b3e:	f47f af71 	bne.w	a24 <laser_info_com+0x1c>
			laser_command_ptr = laser_Icommand6;
     b42:	492d      	ldr	r1, [pc, #180]	; (bf8 <laser_info_com+0x1f0>)
     b44:	4b25      	ldr	r3, [pc, #148]	; (bdc <laser_info_com+0x1d4>)
     b46:	6019      	str	r1, [r3, #0]
			write_laser('1', laser_command_ptr);
     b48:	2031      	movs	r0, #49	; 0x31
     b4a:	4b25      	ldr	r3, [pc, #148]	; (be0 <laser_info_com+0x1d8>)
     b4c:	4798      	blx	r3
			break;
     b4e:	bd08      	pop	{r3, pc}
			laser_command_ptr = laser_Icommand7;
     b50:	492a      	ldr	r1, [pc, #168]	; (bfc <laser_info_com+0x1f4>)
     b52:	4b22      	ldr	r3, [pc, #136]	; (bdc <laser_info_com+0x1d4>)
     b54:	6019      	str	r1, [r3, #0]
			write_laser('0', laser_command_ptr);
     b56:	2030      	movs	r0, #48	; 0x30
     b58:	4b21      	ldr	r3, [pc, #132]	; (be0 <laser_info_com+0x1d8>)
     b5a:	4798      	blx	r3
	if(*(terminal_input_array_ptr+1) == '1'){	
     b5c:	4b1d      	ldr	r3, [pc, #116]	; (bd4 <laser_info_com+0x1cc>)
     b5e:	681b      	ldr	r3, [r3, #0]
     b60:	785b      	ldrb	r3, [r3, #1]
     b62:	b2db      	uxtb	r3, r3
     b64:	2b31      	cmp	r3, #49	; 0x31
     b66:	f47f af5d 	bne.w	a24 <laser_info_com+0x1c>
			laser_command_ptr = laser_Icommand7;
     b6a:	4924      	ldr	r1, [pc, #144]	; (bfc <laser_info_com+0x1f4>)
     b6c:	4b1b      	ldr	r3, [pc, #108]	; (bdc <laser_info_com+0x1d4>)
     b6e:	6019      	str	r1, [r3, #0]
			write_laser('1', laser_command_ptr);
     b70:	2031      	movs	r0, #49	; 0x31
     b72:	4b1b      	ldr	r3, [pc, #108]	; (be0 <laser_info_com+0x1d8>)
     b74:	4798      	blx	r3
			break;
     b76:	bd08      	pop	{r3, pc}
			laser_command_ptr = laser_Icommand8;
     b78:	4921      	ldr	r1, [pc, #132]	; (c00 <laser_info_com+0x1f8>)
     b7a:	4b18      	ldr	r3, [pc, #96]	; (bdc <laser_info_com+0x1d4>)
     b7c:	6019      	str	r1, [r3, #0]
			write_laser('0', laser_command_ptr);
     b7e:	2030      	movs	r0, #48	; 0x30
     b80:	4b17      	ldr	r3, [pc, #92]	; (be0 <laser_info_com+0x1d8>)
     b82:	4798      	blx	r3
	if(*(terminal_input_array_ptr+1) == '1'){	
     b84:	4b13      	ldr	r3, [pc, #76]	; (bd4 <laser_info_com+0x1cc>)
     b86:	681b      	ldr	r3, [r3, #0]
     b88:	785b      	ldrb	r3, [r3, #1]
     b8a:	b2db      	uxtb	r3, r3
     b8c:	2b31      	cmp	r3, #49	; 0x31
     b8e:	f47f af49 	bne.w	a24 <laser_info_com+0x1c>
			laser_command_ptr = laser_Icommand8;
     b92:	491b      	ldr	r1, [pc, #108]	; (c00 <laser_info_com+0x1f8>)
     b94:	4b11      	ldr	r3, [pc, #68]	; (bdc <laser_info_com+0x1d4>)
     b96:	6019      	str	r1, [r3, #0]
			write_laser('1', laser_command_ptr);
     b98:	2031      	movs	r0, #49	; 0x31
     b9a:	4b11      	ldr	r3, [pc, #68]	; (be0 <laser_info_com+0x1d8>)
     b9c:	4798      	blx	r3
}
     b9e:	e741      	b.n	a24 <laser_info_com+0x1c>
		switch(temp){
     ba0:	3b30      	subs	r3, #48	; 0x30
     ba2:	2b08      	cmp	r3, #8
     ba4:	f63f af3e 	bhi.w	a24 <laser_info_com+0x1c>
     ba8:	a201      	add	r2, pc, #4	; (adr r2, bb0 <laser_info_com+0x1a8>)
     baa:	f852 f023 	ldr.w	pc, [r2, r3, lsl #2]
     bae:	bf00      	nop
     bb0:	00000a5d 	.word	0x00000a5d
     bb4:	00000a83 	.word	0x00000a83
     bb8:	00000aa9 	.word	0x00000aa9
     bbc:	00000acf 	.word	0x00000acf
     bc0:	00000af5 	.word	0x00000af5
     bc4:	00000b1b 	.word	0x00000b1b
     bc8:	00000b43 	.word	0x00000b43
     bcc:	00000b6b 	.word	0x00000b6b
     bd0:	00000b93 	.word	0x00000b93
     bd4:	20000bb8 	.word	0x20000bb8
     bd8:	20000010 	.word	0x20000010
     bdc:	20000bec 	.word	0x20000bec
     be0:	000009b1 	.word	0x000009b1
     be4:	20000018 	.word	0x20000018
     be8:	2000001c 	.word	0x2000001c
     bec:	20000024 	.word	0x20000024
     bf0:	2000002c 	.word	0x2000002c
     bf4:	20000030 	.word	0x20000030
     bf8:	20000034 	.word	0x20000034
     bfc:	2000003c 	.word	0x2000003c
     c00:	20000040 	.word	0x20000040

00000c04 <laser_com>:
void laser_com(void){
     c04:	b508      	push	{r3, lr}
	if(*(terminal_input_array_ptr+1) == '0'){
     c06:	4b1b      	ldr	r3, [pc, #108]	; (c74 <laser_com+0x70>)
     c08:	681a      	ldr	r2, [r3, #0]
     c0a:	7853      	ldrb	r3, [r2, #1]
     c0c:	b2db      	uxtb	r3, r3
     c0e:	2b30      	cmp	r3, #48	; 0x30
     c10:	d004      	beq.n	c1c <laser_com+0x18>
	else if(*(terminal_input_array_ptr+1) == '1'){
     c12:	7853      	ldrb	r3, [r2, #1]
     c14:	b2db      	uxtb	r3, r3
     c16:	2b31      	cmp	r3, #49	; 0x31
     c18:	d016      	beq.n	c48 <laser_com+0x44>
     c1a:	bd08      	pop	{r3, pc}
		if(*(terminal_input_array_ptr+2) == '0'){
     c1c:	7893      	ldrb	r3, [r2, #2]
     c1e:	b2db      	uxtb	r3, r3
     c20:	2b30      	cmp	r3, #48	; 0x30
     c22:	d00a      	beq.n	c3a <laser_com+0x36>
		else if(*(terminal_input_array_ptr+2) == '1'){
     c24:	7893      	ldrb	r3, [r2, #2]
     c26:	b2db      	uxtb	r3, r3
     c28:	2b31      	cmp	r3, #49	; 0x31
     c2a:	d1f6      	bne.n	c1a <laser_com+0x16>
			laser_command_ptr = laser_command1;
     c2c:	4912      	ldr	r1, [pc, #72]	; (c78 <laser_com+0x74>)
     c2e:	4b13      	ldr	r3, [pc, #76]	; (c7c <laser_com+0x78>)
     c30:	6019      	str	r1, [r3, #0]
			write_laser('0', laser_command_ptr);
     c32:	2030      	movs	r0, #48	; 0x30
     c34:	4b12      	ldr	r3, [pc, #72]	; (c80 <laser_com+0x7c>)
     c36:	4798      	blx	r3
     c38:	bd08      	pop	{r3, pc}
			laser_command_ptr = laser_command0;
     c3a:	4912      	ldr	r1, [pc, #72]	; (c84 <laser_com+0x80>)
     c3c:	4b0f      	ldr	r3, [pc, #60]	; (c7c <laser_com+0x78>)
     c3e:	6019      	str	r1, [r3, #0]
			write_laser('0', laser_command_ptr);
     c40:	2030      	movs	r0, #48	; 0x30
     c42:	4b0f      	ldr	r3, [pc, #60]	; (c80 <laser_com+0x7c>)
     c44:	4798      	blx	r3
     c46:	bd08      	pop	{r3, pc}
		if(*(terminal_input_array_ptr+2) == '0'){
     c48:	7893      	ldrb	r3, [r2, #2]
     c4a:	b2db      	uxtb	r3, r3
     c4c:	2b30      	cmp	r3, #48	; 0x30
     c4e:	d00a      	beq.n	c66 <laser_com+0x62>
		else if(*(terminal_input_array_ptr+2) == '1'){
     c50:	7893      	ldrb	r3, [r2, #2]
     c52:	b2db      	uxtb	r3, r3
     c54:	2b31      	cmp	r3, #49	; 0x31
     c56:	d1e0      	bne.n	c1a <laser_com+0x16>
			laser_command_ptr = laser_command1;
     c58:	4907      	ldr	r1, [pc, #28]	; (c78 <laser_com+0x74>)
     c5a:	4b08      	ldr	r3, [pc, #32]	; (c7c <laser_com+0x78>)
     c5c:	6019      	str	r1, [r3, #0]
			write_laser('1', laser_command_ptr);
     c5e:	2031      	movs	r0, #49	; 0x31
     c60:	4b07      	ldr	r3, [pc, #28]	; (c80 <laser_com+0x7c>)
     c62:	4798      	blx	r3
}
     c64:	e7d9      	b.n	c1a <laser_com+0x16>
			laser_command_ptr = laser_command0;
     c66:	4907      	ldr	r1, [pc, #28]	; (c84 <laser_com+0x80>)
     c68:	4b04      	ldr	r3, [pc, #16]	; (c7c <laser_com+0x78>)
     c6a:	6019      	str	r1, [r3, #0]
			write_laser('1', laser_command_ptr);
     c6c:	2031      	movs	r0, #49	; 0x31
     c6e:	4b04      	ldr	r3, [pc, #16]	; (c80 <laser_com+0x7c>)
     c70:	4798      	blx	r3
     c72:	bd08      	pop	{r3, pc}
     c74:	20000bb8 	.word	0x20000bb8
     c78:	2000004c 	.word	0x2000004c
     c7c:	20000bec 	.word	0x20000bec
     c80:	000009b1 	.word	0x000009b1
     c84:	20000048 	.word	0x20000048

00000c88 <laser_start_seq>:
		//uart1->DATA.reg = 13;
	}
	
} 
/* Laser Start Sequence */
void laser_start_seq(void){
     c88:	b570      	push	{r4, r5, r6, lr}
	laser_command_ptr = laser_Scommand0;	//disable auto start
     c8a:	4d0e      	ldr	r5, [pc, #56]	; (cc4 <laser_start_seq+0x3c>)
     c8c:	4e0e      	ldr	r6, [pc, #56]	; (cc8 <laser_start_seq+0x40>)
     c8e:	f106 0144 	add.w	r1, r6, #68	; 0x44
     c92:	6029      	str	r1, [r5, #0]
	write_laser('0', laser_command_ptr);
     c94:	2030      	movs	r0, #48	; 0x30
     c96:	4c0d      	ldr	r4, [pc, #52]	; (ccc <laser_start_seq+0x44>)
     c98:	47a0      	blx	r4
	write_laser('1', laser_command_ptr);
     c9a:	6829      	ldr	r1, [r5, #0]
     c9c:	2031      	movs	r0, #49	; 0x31
     c9e:	47a0      	blx	r4
	laser_command_ptr = laser_Scommand1;	//disable direct ctrl
     ca0:	f106 0150 	add.w	r1, r6, #80	; 0x50
     ca4:	6029      	str	r1, [r5, #0]
	write_laser('0', laser_command_ptr);
     ca6:	2030      	movs	r0, #48	; 0x30
     ca8:	47a0      	blx	r4
	write_laser('1', laser_command_ptr);
     caa:	6829      	ldr	r1, [r5, #0]
     cac:	2031      	movs	r0, #49	; 0x31
     cae:	47a0      	blx	r4
	laser_command_ptr = laser_command0;	//turn off lasers as a precautionary measure
     cb0:	f106 0138 	add.w	r1, r6, #56	; 0x38
     cb4:	6029      	str	r1, [r5, #0]
	write_laser('0', laser_command_ptr);
     cb6:	2030      	movs	r0, #48	; 0x30
     cb8:	47a0      	blx	r4
	write_laser('1', laser_command_ptr);
     cba:	6829      	ldr	r1, [r5, #0]
     cbc:	2031      	movs	r0, #49	; 0x31
     cbe:	47a0      	blx	r4
     cc0:	bd70      	pop	{r4, r5, r6, pc}
     cc2:	bf00      	nop
     cc4:	20000bec 	.word	0x20000bec
     cc8:	20000010 	.word	0x20000010
     ccc:	000009b1 	.word	0x000009b1

00000cd0 <laser_key_EIC_setup>:
/******************************************************
*  If laser is beig turned on or interlock is set
*  key must be toggled 
*  ***************************************************/
void laser_key_EIC_setup(void){
	EIC->CTRLA.reg = 0;
     cd0:	2200      	movs	r2, #0
     cd2:	4b1b      	ldr	r3, [pc, #108]	; (d40 <laser_key_EIC_setup+0x70>)
     cd4:	701a      	strb	r2, [r3, #0]
	while(EIC->SYNCBUSY.reg){}
     cd6:	461a      	mov	r2, r3
     cd8:	6853      	ldr	r3, [r2, #4]
     cda:	2b00      	cmp	r3, #0
     cdc:	d1fc      	bne.n	cd8 <laser_key_EIC_setup+0x8>
	EIC->CTRLA.bit.CKSEL = 0;	//EIC is clocked by GCLK
     cde:	4b18      	ldr	r3, [pc, #96]	; (d40 <laser_key_EIC_setup+0x70>)
     ce0:	781a      	ldrb	r2, [r3, #0]
     ce2:	f36f 1204 	bfc	r2, #4, #1
     ce6:	701a      	strb	r2, [r3, #0]
	EIC->INTENSET.reg |= 1<<11;	
     ce8:	691a      	ldr	r2, [r3, #16]
     cea:	f442 6200 	orr.w	r2, r2, #2048	; 0x800
     cee:	611a      	str	r2, [r3, #16]
	EIC->ASYNCH.reg |= 1<<11;	//asynchronous mode
     cf0:	699a      	ldr	r2, [r3, #24]
     cf2:	f442 6200 	orr.w	r2, r2, #2048	; 0x800
     cf6:	619a      	str	r2, [r3, #24]
	//EIC->CONFIG[1].bit.SENSE3 = 1;	//rising edge detection
	
	/* Debouncing */
	EIC->CONFIG[1].bit.SENSE3 = 3;	//both edge detection
     cf8:	6a1a      	ldr	r2, [r3, #32]
     cfa:	2103      	movs	r1, #3
     cfc:	f361 320e 	bfi	r2, r1, #12, #3
     d00:	621a      	str	r2, [r3, #32]
	EIC->ASYNCH.reg |= 0;	//synchronous mode
     d02:	699a      	ldr	r2, [r3, #24]
     d04:	619a      	str	r2, [r3, #24]
	EIC->DEBOUNCEN.reg |= 1<<11;
     d06:	6b1a      	ldr	r2, [r3, #48]	; 0x30
     d08:	f442 6200 	orr.w	r2, r2, #2048	; 0x800
     d0c:	631a      	str	r2, [r3, #48]	; 0x30
	EIC->DPRESCALER.bit.TICKON = 1;	//use prescaled clk (low freq)
     d0e:	6b5a      	ldr	r2, [r3, #52]	; 0x34
     d10:	f442 3280 	orr.w	r2, r2, #65536	; 0x10000
     d14:	635a      	str	r2, [r3, #52]	; 0x34
	EIC->DPRESCALER.bit.STATES1 = 1;	//use 3 low freq samples to validate transistion
     d16:	6b5a      	ldr	r2, [r3, #52]	; 0x34
     d18:	f042 0280 	orr.w	r2, r2, #128	; 0x80
     d1c:	635a      	str	r2, [r3, #52]	; 0x34
	EIC->DPRESCALER.bit.PRESCALER1 = 6;	//divide EIC by 64
     d1e:	6b5a      	ldr	r2, [r3, #52]	; 0x34
     d20:	2106      	movs	r1, #6
     d22:	f361 1206 	bfi	r2, r1, #4, #3
     d26:	635a      	str	r2, [r3, #52]	; 0x34
	
	EIC->CTRLA.reg = 1<<1;	//enable
     d28:	2202      	movs	r2, #2
     d2a:	701a      	strb	r2, [r3, #0]
	while(EIC->SYNCBUSY.reg){}	
     d2c:	461a      	mov	r2, r3
     d2e:	6853      	ldr	r3, [r2, #4]
     d30:	2b00      	cmp	r3, #0
     d32:	d1fc      	bne.n	d2e <laser_key_EIC_setup+0x5e>
	NVIC->ISER[0] |= 1<<23;	//enable the NVIC handler 
     d34:	4a03      	ldr	r2, [pc, #12]	; (d44 <laser_key_EIC_setup+0x74>)
     d36:	6813      	ldr	r3, [r2, #0]
     d38:	f443 0300 	orr.w	r3, r3, #8388608	; 0x800000
     d3c:	6013      	str	r3, [r2, #0]
     d3e:	4770      	bx	lr
     d40:	40002800 	.word	0x40002800
     d44:	e000e100 	.word	0xe000e100

00000d48 <EIC_11_Handler>:
*  Handler acknowledges key toggling to turn on lasers
*  Writes commands to clear fault and turn laser ON
*  Delay ~ 1s after turn ON/OFF command to actual laser turn ON/OFF
*  ***************************************************/
void EIC_11_Handler(void){
	EIC->INTFLAG.reg = 1<<11;	//clear int flag
     d48:	f44f 6200 	mov.w	r2, #2048	; 0x800
     d4c:	4b05      	ldr	r3, [pc, #20]	; (d64 <EIC_11_Handler+0x1c>)
     d4e:	615a      	str	r2, [r3, #20]
	Tc *tc = TC5;
	TcCount16 *tc5 = &tc->COUNT16;
	tc5->CTRLBSET.bit.CMD = 1;	//force retrigger of 1s timer
     d50:	4a05      	ldr	r2, [pc, #20]	; (d68 <EIC_11_Handler+0x20>)
     d52:	7953      	ldrb	r3, [r2, #5]
     d54:	2101      	movs	r1, #1
     d56:	f361 1347 	bfi	r3, r1, #5, #3
     d5a:	7153      	strb	r3, [r2, #5]
	while(tc5->SYNCBUSY.reg){}	//wait for sync of disable
     d5c:	6913      	ldr	r3, [r2, #16]
     d5e:	2b00      	cmp	r3, #0
     d60:	d1fc      	bne.n	d5c <EIC_11_Handler+0x14>
// 		EIC_pinstate = true;
// 	}
// 	else if(EIC->PINSTATE.reg == 0){
// 		EIC_pinstate = false;
// 	}
}
     d62:	4770      	bx	lr
     d64:	40002800 	.word	0x40002800
     d68:	42001800 	.word	0x42001800

00000d6c <laser_key_delay_timer_setup>:

/* TC5 Creates a delay of ~1s when laser key is toggled until turn ON/OFF */
void laser_key_delay_timer_setup(void){	
	Tc *tc = TC5;
	TcCount16 *tc5 = &tc->COUNT16;
	tc5->CTRLA.reg = 0;	//disable the TC5
     d6c:	2200      	movs	r2, #0
     d6e:	4b19      	ldr	r3, [pc, #100]	; (dd4 <laser_key_delay_timer_setup+0x68>)
     d70:	601a      	str	r2, [r3, #0]
	while(tc5->SYNCBUSY.reg){}	//wait for sync of disable
     d72:	461a      	mov	r2, r3
     d74:	6913      	ldr	r3, [r2, #16]
     d76:	2b00      	cmp	r3, #0
     d78:	d1fc      	bne.n	d74 <laser_key_delay_timer_setup+0x8>
	tc5->CTRLA.bit.PRESCALER = 4;	//divide by 2^n;
     d7a:	4b16      	ldr	r3, [pc, #88]	; (dd4 <laser_key_delay_timer_setup+0x68>)
     d7c:	681a      	ldr	r2, [r3, #0]
     d7e:	2104      	movs	r1, #4
     d80:	f361 220a 	bfi	r2, r1, #8, #3
     d84:	601a      	str	r2, [r3, #0]
	tc5->CTRLA.bit.MODE = 0;	//16 bit mode
     d86:	681a      	ldr	r2, [r3, #0]
     d88:	f36f 0283 	bfc	r2, #2, #2
     d8c:	601a      	str	r2, [r3, #0]
	tc5->CTRLBSET.bit.ONESHOT = 1;	//turn on one shot mode
     d8e:	795a      	ldrb	r2, [r3, #5]
     d90:	430a      	orrs	r2, r1
     d92:	715a      	strb	r2, [r3, #5]
	while(tc5->SYNCBUSY.reg){}	//wait for sync of disable
     d94:	461a      	mov	r2, r3
     d96:	6913      	ldr	r3, [r2, #16]
     d98:	2b00      	cmp	r3, #0
     d9a:	d1fc      	bne.n	d96 <laser_key_delay_timer_setup+0x2a>
	tc5->INTENSET.bit.OVF = 1;	//enable the overflow interrupt
     d9c:	4a0d      	ldr	r2, [pc, #52]	; (dd4 <laser_key_delay_timer_setup+0x68>)
     d9e:	7a53      	ldrb	r3, [r2, #9]
     da0:	f043 0301 	orr.w	r3, r3, #1
     da4:	7253      	strb	r3, [r2, #9]
	while(tc5->SYNCBUSY.reg){}	//wait for sync of disable
     da6:	6913      	ldr	r3, [r2, #16]
     da8:	2b00      	cmp	r3, #0
     daa:	d1fc      	bne.n	da6 <laser_key_delay_timer_setup+0x3a>
	tc5->CTRLA.reg |= 1<<1;	//enable the TC5
     dac:	4a09      	ldr	r2, [pc, #36]	; (dd4 <laser_key_delay_timer_setup+0x68>)
     dae:	6813      	ldr	r3, [r2, #0]
     db0:	f043 0302 	orr.w	r3, r3, #2
     db4:	6013      	str	r3, [r2, #0]
	while(tc5->SYNCBUSY.reg){}	//wait for sync of disable
     db6:	6913      	ldr	r3, [r2, #16]
     db8:	2b00      	cmp	r3, #0
     dba:	d1fc      	bne.n	db6 <laser_key_delay_timer_setup+0x4a>
	tc5->CTRLBSET.bit.CMD = 2;	//stop. This is here because it starts counting right away and it needs to start by EIC
     dbc:	4a05      	ldr	r2, [pc, #20]	; (dd4 <laser_key_delay_timer_setup+0x68>)
     dbe:	7953      	ldrb	r3, [r2, #5]
     dc0:	2102      	movs	r1, #2
     dc2:	f361 1347 	bfi	r3, r1, #5, #3
     dc6:	7153      	strb	r3, [r2, #5]
	NVIC->ISER[3] |= 1<<16;	//enable the NVIC handler for TC5
     dc8:	4a03      	ldr	r2, [pc, #12]	; (dd8 <laser_key_delay_timer_setup+0x6c>)
     dca:	68d3      	ldr	r3, [r2, #12]
     dcc:	f443 3380 	orr.w	r3, r3, #65536	; 0x10000
     dd0:	60d3      	str	r3, [r2, #12]
     dd2:	4770      	bx	lr
     dd4:	42001800 	.word	0x42001800
     dd8:	e000e100 	.word	0xe000e100

00000ddc <TC5_Handler>:
}

void TC5_Handler(void){
     ddc:	b570      	push	{r4, r5, r6, lr}
	Tc *tc = TC5;
	TcCount16 *tc5 = &tc->COUNT16;
	tc5->INTFLAG.bit.OVF = 1;	//clear the int flag
     dde:	4a15      	ldr	r2, [pc, #84]	; (e34 <TC5_Handler+0x58>)
     de0:	7a93      	ldrb	r3, [r2, #10]
     de2:	f043 0301 	orr.w	r3, r3, #1
     de6:	7293      	strb	r3, [r2, #10]
	while(tc5->SYNCBUSY.reg){}	//wait for sync of disable
     de8:	6913      	ldr	r3, [r2, #16]
     dea:	2b00      	cmp	r3, #0
     dec:	d1fc      	bne.n	de8 <TC5_Handler+0xc>
		
	/* Write to lasers to restart */
	//if(EIC_pinstate){
		if(EIC->PINSTATE.reg == 0x800){
     dee:	4b12      	ldr	r3, [pc, #72]	; (e38 <TC5_Handler+0x5c>)
     df0:	6b9b      	ldr	r3, [r3, #56]	; 0x38
     df2:	f5b3 6f00 	cmp.w	r3, #2048	; 0x800
     df6:	d009      	beq.n	e0c <TC5_Handler+0x30>
		write_laser('1', laser_command_ptr);
	}
	
	else{
		/* Turn Laser OFF */
		laser_command_ptr = laser_command0;
     df8:	4d10      	ldr	r5, [pc, #64]	; (e3c <TC5_Handler+0x60>)
     dfa:	4911      	ldr	r1, [pc, #68]	; (e40 <TC5_Handler+0x64>)
     dfc:	6029      	str	r1, [r5, #0]
		write_laser('0', laser_command_ptr);
     dfe:	2030      	movs	r0, #48	; 0x30
     e00:	4c10      	ldr	r4, [pc, #64]	; (e44 <TC5_Handler+0x68>)
     e02:	47a0      	blx	r4
		write_laser('1', laser_command_ptr);
     e04:	6829      	ldr	r1, [r5, #0]
     e06:	2031      	movs	r0, #49	; 0x31
     e08:	47a0      	blx	r4
     e0a:	bd70      	pop	{r4, r5, r6, pc}
		laser_command_ptr = laser_command2;
     e0c:	4e0b      	ldr	r6, [pc, #44]	; (e3c <TC5_Handler+0x60>)
     e0e:	4c0e      	ldr	r4, [pc, #56]	; (e48 <TC5_Handler+0x6c>)
     e10:	f104 015c 	add.w	r1, r4, #92	; 0x5c
     e14:	6031      	str	r1, [r6, #0]
		write_laser('0', laser_command_ptr);
     e16:	2030      	movs	r0, #48	; 0x30
     e18:	4d0a      	ldr	r5, [pc, #40]	; (e44 <TC5_Handler+0x68>)
     e1a:	47a8      	blx	r5
		write_laser('1', laser_command_ptr);		
     e1c:	6831      	ldr	r1, [r6, #0]
     e1e:	2031      	movs	r0, #49	; 0x31
     e20:	47a8      	blx	r5
		laser_command_ptr = laser_command1;
     e22:	f104 013c 	add.w	r1, r4, #60	; 0x3c
     e26:	6031      	str	r1, [r6, #0]
		write_laser('0', laser_command_ptr);
     e28:	2030      	movs	r0, #48	; 0x30
     e2a:	47a8      	blx	r5
		write_laser('1', laser_command_ptr);
     e2c:	6831      	ldr	r1, [r6, #0]
     e2e:	2031      	movs	r0, #49	; 0x31
     e30:	47a8      	blx	r5
     e32:	bd70      	pop	{r4, r5, r6, pc}
     e34:	42001800 	.word	0x42001800
     e38:	40002800 	.word	0x40002800
     e3c:	20000bec 	.word	0x20000bec
     e40:	20000048 	.word	0x20000048
     e44:	000009b1 	.word	0x000009b1
     e48:	20000010 	.word	0x20000010

00000e4c <clock_setup>:
}

/* CLock source is 12MHz divided to 1MHz */
void clock_setup(void){
	/* 12MHz crystal on board selected mapped to PB22/PB23 */
	OSCCTRL->XOSCCTRL[1].bit.ENALC = 1;	//enables auto loop ctrl to control amp of osc
     e4c:	4b32      	ldr	r3, [pc, #200]	; (f18 <clock_setup+0xcc>)
     e4e:	699a      	ldr	r2, [r3, #24]
     e50:	f442 4200 	orr.w	r2, r2, #32768	; 0x8000
     e54:	619a      	str	r2, [r3, #24]
	OSCCTRL->XOSCCTRL[1].bit.IMULT = 4;
     e56:	699a      	ldr	r2, [r3, #24]
     e58:	2104      	movs	r1, #4
     e5a:	f361 22ce 	bfi	r2, r1, #11, #4
     e5e:	619a      	str	r2, [r3, #24]
	OSCCTRL->XOSCCTRL[1].bit.IPTAT = 3;
     e60:	699a      	ldr	r2, [r3, #24]
     e62:	f442 62c0 	orr.w	r2, r2, #1536	; 0x600
     e66:	619a      	str	r2, [r3, #24]
	OSCCTRL->XOSCCTRL[1].bit.ONDEMAND = 1;
     e68:	699a      	ldr	r2, [r3, #24]
     e6a:	f042 0280 	orr.w	r2, r2, #128	; 0x80
     e6e:	619a      	str	r2, [r3, #24]
	OSCCTRL->XOSCCTRL[1].bit.RUNSTDBY = 1;
     e70:	699a      	ldr	r2, [r3, #24]
     e72:	f042 0240 	orr.w	r2, r2, #64	; 0x40
     e76:	619a      	str	r2, [r3, #24]
	OSCCTRL->XOSCCTRL[1].bit.XTALEN = 1;	//select ext crystal osc mode
     e78:	699a      	ldr	r2, [r3, #24]
     e7a:	430a      	orrs	r2, r1
     e7c:	619a      	str	r2, [r3, #24]
	OSCCTRL->XOSCCTRL[1].bit.ENABLE = 1;
     e7e:	699a      	ldr	r2, [r3, #24]
     e80:	f042 0202 	orr.w	r2, r2, #2
     e84:	619a      	str	r2, [r3, #24]
	
	GCLK->GENCTRL[0].reg = GCLK_GENCTRL_SRC_XOSC1 | GCLK_GENCTRL_RUNSTDBY | !(GCLK_GENCTRL_DIVSEL) | GCLK_GENCTRL_OE | GCLK_GENCTRL_GENEN | GCLK_GENCTRL_DIV(12);	//divide by 12 = 1MHz
     e86:	f503 6340 	add.w	r3, r3, #3072	; 0xc00
     e8a:	4a24      	ldr	r2, [pc, #144]	; (f1c <clock_setup+0xd0>)
     e8c:	621a      	str	r2, [r3, #32]
	GCLK->GENCTRL[1].reg = GCLK_GENCTRL_SRC_XOSC1 | GCLK_GENCTRL_RUNSTDBY | !(GCLK_GENCTRL_DIVSEL) | GCLK_GENCTRL_OE | GCLK_GENCTRL_GENEN | GCLK_GENCTRL_DIV(1);	//divide by 1 = 12MHz
     e8e:	f5a2 2230 	sub.w	r2, r2, #720896	; 0xb0000
     e92:	625a      	str	r2, [r3, #36]	; 0x24
	while(GCLK->SYNCBUSY.reg){}	//wait for sync
     e94:	461a      	mov	r2, r3
     e96:	6853      	ldr	r3, [r2, #4]
     e98:	2b00      	cmp	r3, #0
     e9a:	d1fc      	bne.n	e96 <clock_setup+0x4a>
	
	GCLK->PCHCTRL[7].bit.CHEN = 0;	//disable for safety first
     e9c:	4b20      	ldr	r3, [pc, #128]	; (f20 <clock_setup+0xd4>)
     e9e:	f8d3 209c 	ldr.w	r2, [r3, #156]	; 0x9c
     ea2:	f36f 1286 	bfc	r2, #6, #1
     ea6:	f8c3 209c 	str.w	r2, [r3, #156]	; 0x9c
	GCLK->PCHCTRL[7].reg = GCLK_PCHCTRL_CHEN | GCLK_PCHCTRL_GEN_GCLK0;	//SERCOM0
     eaa:	2240      	movs	r2, #64	; 0x40
     eac:	f8c3 209c 	str.w	r2, [r3, #156]	; 0x9c
	GCLK->PCHCTRL[36].reg = GCLK_PCHCTRL_CHEN | GCLK_PCHCTRL_GEN_GCLK0;	//SERCOM6
     eb0:	f8c3 2110 	str.w	r2, [r3, #272]	; 0x110
	GCLK->PCHCTRL[30].reg = GCLK_PCHCTRL_CHEN | GCLK_PCHCTRL_GEN_GCLK0;	//TC4/TC5
     eb4:	f8c3 20f8 	str.w	r2, [r3, #248]	; 0xf8
	GCLK->PCHCTRL[40].reg = GCLK_PCHCTRL_CHEN | GCLK_PCHCTRL_GEN_GCLK0;	//ADC0
     eb8:	f8c3 2120 	str.w	r2, [r3, #288]	; 0x120
	GCLK->PCHCTRL[41].reg = GCLK_PCHCTRL_CHEN | GCLK_PCHCTRL_GEN_GCLK0;	//ADC1
     ebc:	f8c3 2124 	str.w	r2, [r3, #292]	; 0x124
	GCLK->PCHCTRL[4].reg = GCLK_PCHCTRL_CHEN | GCLK_PCHCTRL_GEN_GCLK0;	//EIC
     ec0:	f8c3 2090 	str.w	r2, [r3, #144]	; 0x90
	GCLK->PCHCTRL[8].reg = GCLK_PCHCTRL_CHEN | GCLK_PCHCTRL_GEN_GCLK1;	//SERCOM1
     ec4:	2241      	movs	r2, #65	; 0x41
     ec6:	f8c3 20a0 	str.w	r2, [r3, #160]	; 0xa0
	GCLK->PCHCTRL[23].reg = GCLK_PCHCTRL_CHEN | GCLK_PCHCTRL_GEN_GCLK1;	//SERCOM2
     eca:	f8c3 20dc 	str.w	r2, [r3, #220]	; 0xdc


	MCLK->CPUDIV.reg = 1;	//divide by 1
     ece:	f5a3 53a0 	sub.w	r3, r3, #5120	; 0x1400
     ed2:	2201      	movs	r2, #1
     ed4:	715a      	strb	r2, [r3, #5]
	MCLK->APBAMASK.reg |= MCLK_APBAMASK_SERCOM0;	//unmask sercom0
     ed6:	695a      	ldr	r2, [r3, #20]
     ed8:	f442 5280 	orr.w	r2, r2, #4096	; 0x1000
     edc:	615a      	str	r2, [r3, #20]
	MCLK->APBDMASK.reg |= MCLK_APBDMASK_SERCOM6;	//unmask sercom6
     ede:	6a1a      	ldr	r2, [r3, #32]
     ee0:	f042 0204 	orr.w	r2, r2, #4
     ee4:	621a      	str	r2, [r3, #32]
	MCLK->APBCMASK.reg |= MCLK_APBCMASK_TC4;	//unmask TC4
     ee6:	69da      	ldr	r2, [r3, #28]
     ee8:	f042 0220 	orr.w	r2, r2, #32
     eec:	61da      	str	r2, [r3, #28]
	MCLK->APBCMASK.reg |= MCLK_APBCMASK_TC5;	//unmask TC5
     eee:	69da      	ldr	r2, [r3, #28]
     ef0:	f042 0240 	orr.w	r2, r2, #64	; 0x40
     ef4:	61da      	str	r2, [r3, #28]
	MCLK->APBDMASK.reg |= MCLK_APBDMASK_ADC1 | MCLK_APBDMASK_ADC0;//unmask ADC1
     ef6:	6a1a      	ldr	r2, [r3, #32]
     ef8:	f442 72c0 	orr.w	r2, r2, #384	; 0x180
     efc:	621a      	str	r2, [r3, #32]
	MCLK->APBAMASK.reg |= MCLK_APBAMASK_EIC;	//unmask EIC
     efe:	695a      	ldr	r2, [r3, #20]
     f00:	f442 6280 	orr.w	r2, r2, #1024	; 0x400
     f04:	615a      	str	r2, [r3, #20]
	MCLK->APBAMASK.reg |= MCLK_APBAMASK_SERCOM1;	//unmask sercom1
     f06:	695a      	ldr	r2, [r3, #20]
     f08:	f442 5200 	orr.w	r2, r2, #8192	; 0x2000
     f0c:	615a      	str	r2, [r3, #20]
	MCLK->APBBMASK.reg |= MCLK_APBBMASK_SERCOM2;	//unmask sercom2
     f0e:	699a      	ldr	r2, [r3, #24]
     f10:	f442 7200 	orr.w	r2, r2, #512	; 0x200
     f14:	619a      	str	r2, [r3, #24]
     f16:	4770      	bx	lr
     f18:	40001000 	.word	0x40001000
     f1c:	000c2901 	.word	0x000c2901
     f20:	40001c00 	.word	0x40001c00

00000f24 <port_control>:
void port_control(void){
	
		Port *por = PORT;
		PortGroup *porB = &(por->Group[1]);
		
	if((*(terminal_input_array_ptr+1) >= 48) && (*(terminal_input_array_ptr+1) <= 57)){	//looking for number keys only
     f24:	4b4b      	ldr	r3, [pc, #300]	; (1054 <port_control+0x130>)
     f26:	681a      	ldr	r2, [r3, #0]
     f28:	7853      	ldrb	r3, [r2, #1]
     f2a:	b2db      	uxtb	r3, r3
     f2c:	2b2f      	cmp	r3, #47	; 0x2f
     f2e:	d92f      	bls.n	f90 <port_control+0x6c>
     f30:	7853      	ldrb	r3, [r2, #1]
     f32:	b2db      	uxtb	r3, r3
     f34:	2b39      	cmp	r3, #57	; 0x39
     f36:	d82b      	bhi.n	f90 <port_control+0x6c>
		if((*(terminal_input_array_ptr+2) >= 48) && (*(terminal_input_array_ptr+2) <= 57)){	//looking for number keys only
     f38:	7893      	ldrb	r3, [r2, #2]
     f3a:	b2db      	uxtb	r3, r3
     f3c:	2b2f      	cmp	r3, #47	; 0x2f
     f3e:	d927      	bls.n	f90 <port_control+0x6c>
     f40:	7893      	ldrb	r3, [r2, #2]
     f42:	b2db      	uxtb	r3, r3
     f44:	2b39      	cmp	r3, #57	; 0x39
     f46:	d823      	bhi.n	f90 <port_control+0x6c>
void port_control(void){
     f48:	b082      	sub	sp, #8
			volatile int zone = (*(terminal_input_array_ptr+1) - 48) * 10;
     f4a:	7853      	ldrb	r3, [r2, #1]
     f4c:	3b30      	subs	r3, #48	; 0x30
     f4e:	eb03 0383 	add.w	r3, r3, r3, lsl #2
     f52:	005b      	lsls	r3, r3, #1
     f54:	9301      	str	r3, [sp, #4]
			zone += *(terminal_input_array_ptr+2) - 48;
     f56:	7893      	ldrb	r3, [r2, #2]
     f58:	9901      	ldr	r1, [sp, #4]
     f5a:	3b30      	subs	r3, #48	; 0x30
     f5c:	440b      	add	r3, r1
     f5e:	9301      	str	r3, [sp, #4]
			
			switch(zone){
     f60:	9b01      	ldr	r3, [sp, #4]
     f62:	2b03      	cmp	r3, #3
     f64:	d813      	bhi.n	f8e <port_control+0x6a>
     f66:	e8df f003 	tbb	[pc, r3]
     f6a:	2002      	.short	0x2002
     f6c:	583c      	.short	0x583c
				case 0:
				if(*(terminal_input_array_ptr+3) == 'L' || *(terminal_input_array_ptr+3) == 'l'){
     f6e:	78d3      	ldrb	r3, [r2, #3]
     f70:	b2db      	uxtb	r3, r3
     f72:	2b4c      	cmp	r3, #76	; 0x4c
     f74:	d00d      	beq.n	f92 <port_control+0x6e>
     f76:	78d3      	ldrb	r3, [r2, #3]
     f78:	b2db      	uxtb	r3, r3
     f7a:	2b6c      	cmp	r3, #108	; 0x6c
     f7c:	d009      	beq.n	f92 <port_control+0x6e>
					porB->OUTCLR.reg = D00;
				}
				else if(*(terminal_input_array_ptr+3) == 'H' || *(terminal_input_array_ptr+3) == 'h'){
     f7e:	78d3      	ldrb	r3, [r2, #3]
     f80:	b2db      	uxtb	r3, r3
     f82:	2b48      	cmp	r3, #72	; 0x48
     f84:	d00b      	beq.n	f9e <port_control+0x7a>
     f86:	78d3      	ldrb	r3, [r2, #3]
     f88:	b2db      	uxtb	r3, r3
     f8a:	2b68      	cmp	r3, #104	; 0x68
     f8c:	d007      	beq.n	f9e <port_control+0x7a>
				default:
				break;
			}
		}
	}
}
     f8e:	b002      	add	sp, #8
     f90:	4770      	bx	lr
					porB->OUTCLR.reg = D00;
     f92:	f04f 6280 	mov.w	r2, #67108864	; 0x4000000
     f96:	4b30      	ldr	r3, [pc, #192]	; (1058 <port_control+0x134>)
     f98:	f8c3 2094 	str.w	r2, [r3, #148]	; 0x94
     f9c:	e7f7      	b.n	f8e <port_control+0x6a>
					porB->OUTSET.reg = D00;
     f9e:	f04f 6280 	mov.w	r2, #67108864	; 0x4000000
     fa2:	4b2d      	ldr	r3, [pc, #180]	; (1058 <port_control+0x134>)
     fa4:	f8c3 2098 	str.w	r2, [r3, #152]	; 0x98
     fa8:	e7f1      	b.n	f8e <port_control+0x6a>
				if(*(terminal_input_array_ptr+3) == 'L' || *(terminal_input_array_ptr+3) == 'l'){
     faa:	78d3      	ldrb	r3, [r2, #3]
     fac:	b2db      	uxtb	r3, r3
     fae:	2b4c      	cmp	r3, #76	; 0x4c
     fb0:	d011      	beq.n	fd6 <port_control+0xb2>
     fb2:	78d3      	ldrb	r3, [r2, #3]
     fb4:	b2db      	uxtb	r3, r3
     fb6:	2b6c      	cmp	r3, #108	; 0x6c
     fb8:	d00d      	beq.n	fd6 <port_control+0xb2>
				else if(*(terminal_input_array_ptr+3) == 'H' || *(terminal_input_array_ptr+3) == 'h'){
     fba:	78d3      	ldrb	r3, [r2, #3]
     fbc:	b2db      	uxtb	r3, r3
     fbe:	2b48      	cmp	r3, #72	; 0x48
     fc0:	d003      	beq.n	fca <port_control+0xa6>
     fc2:	78d3      	ldrb	r3, [r2, #3]
     fc4:	b2db      	uxtb	r3, r3
     fc6:	2b68      	cmp	r3, #104	; 0x68
     fc8:	d1e1      	bne.n	f8e <port_control+0x6a>
					porB->OUTSET.reg = D01;
     fca:	f04f 6200 	mov.w	r2, #134217728	; 0x8000000
     fce:	4b22      	ldr	r3, [pc, #136]	; (1058 <port_control+0x134>)
     fd0:	f8c3 2098 	str.w	r2, [r3, #152]	; 0x98
     fd4:	e7db      	b.n	f8e <port_control+0x6a>
					porB->OUTCLR.reg = D01;
     fd6:	f04f 6200 	mov.w	r2, #134217728	; 0x8000000
     fda:	4b1f      	ldr	r3, [pc, #124]	; (1058 <port_control+0x134>)
     fdc:	f8c3 2094 	str.w	r2, [r3, #148]	; 0x94
     fe0:	e7d5      	b.n	f8e <port_control+0x6a>
				if(*(terminal_input_array_ptr+3) == 'L' || *(terminal_input_array_ptr+3) == 'l'){
     fe2:	78d3      	ldrb	r3, [r2, #3]
     fe4:	b2db      	uxtb	r3, r3
     fe6:	2b4c      	cmp	r3, #76	; 0x4c
     fe8:	d011      	beq.n	100e <port_control+0xea>
     fea:	78d3      	ldrb	r3, [r2, #3]
     fec:	b2db      	uxtb	r3, r3
     fee:	2b6c      	cmp	r3, #108	; 0x6c
     ff0:	d00d      	beq.n	100e <port_control+0xea>
				else if(*(terminal_input_array_ptr+3) == 'H' || *(terminal_input_array_ptr+3) == 'h'){
     ff2:	78d3      	ldrb	r3, [r2, #3]
     ff4:	b2db      	uxtb	r3, r3
     ff6:	2b48      	cmp	r3, #72	; 0x48
     ff8:	d003      	beq.n	1002 <port_control+0xde>
     ffa:	78d3      	ldrb	r3, [r2, #3]
     ffc:	b2db      	uxtb	r3, r3
     ffe:	2b68      	cmp	r3, #104	; 0x68
    1000:	d1c5      	bne.n	f8e <port_control+0x6a>
					porB->OUTSET.reg = D02;
    1002:	f04f 5280 	mov.w	r2, #268435456	; 0x10000000
    1006:	4b14      	ldr	r3, [pc, #80]	; (1058 <port_control+0x134>)
    1008:	f8c3 2098 	str.w	r2, [r3, #152]	; 0x98
    100c:	e7bf      	b.n	f8e <port_control+0x6a>
					porB->OUTCLR.reg = D02;
    100e:	f04f 5280 	mov.w	r2, #268435456	; 0x10000000
    1012:	4b11      	ldr	r3, [pc, #68]	; (1058 <port_control+0x134>)
    1014:	f8c3 2094 	str.w	r2, [r3, #148]	; 0x94
    1018:	e7b9      	b.n	f8e <port_control+0x6a>
				if(*(terminal_input_array_ptr+3) == 'L' || *(terminal_input_array_ptr+3) == 'l'){
    101a:	78d3      	ldrb	r3, [r2, #3]
    101c:	b2db      	uxtb	r3, r3
    101e:	2b4c      	cmp	r3, #76	; 0x4c
    1020:	d011      	beq.n	1046 <port_control+0x122>
    1022:	78d3      	ldrb	r3, [r2, #3]
    1024:	b2db      	uxtb	r3, r3
    1026:	2b6c      	cmp	r3, #108	; 0x6c
    1028:	d00d      	beq.n	1046 <port_control+0x122>
				else if(*(terminal_input_array_ptr+3) == 'H' || *(terminal_input_array_ptr+3) == 'h'){
    102a:	78d3      	ldrb	r3, [r2, #3]
    102c:	b2db      	uxtb	r3, r3
    102e:	2b48      	cmp	r3, #72	; 0x48
    1030:	d003      	beq.n	103a <port_control+0x116>
    1032:	78d3      	ldrb	r3, [r2, #3]
    1034:	b2db      	uxtb	r3, r3
    1036:	2b68      	cmp	r3, #104	; 0x68
    1038:	d1a9      	bne.n	f8e <port_control+0x6a>
					porB->OUTSET.reg = D03;
    103a:	f04f 5200 	mov.w	r2, #536870912	; 0x20000000
    103e:	4b06      	ldr	r3, [pc, #24]	; (1058 <port_control+0x134>)
    1040:	f8c3 2098 	str.w	r2, [r3, #152]	; 0x98
}
    1044:	e7a3      	b.n	f8e <port_control+0x6a>
					porB->OUTCLR.reg = D03;
    1046:	f04f 5200 	mov.w	r2, #536870912	; 0x20000000
    104a:	4b03      	ldr	r3, [pc, #12]	; (1058 <port_control+0x134>)
    104c:	f8c3 2094 	str.w	r2, [r3, #148]	; 0x94
    1050:	e79d      	b.n	f8e <port_control+0x6a>
    1052:	bf00      	nop
    1054:	20000bb8 	.word	0x20000bb8
    1058:	41008000 	.word	0x41008000

0000105c <wait>:

void wait(volatile int d){
    105c:	b082      	sub	sp, #8
    105e:	9001      	str	r0, [sp, #4]
	int count = 0;
	while (count < d*1000){
    1060:	9a01      	ldr	r2, [sp, #4]
    1062:	f44f 737a 	mov.w	r3, #1000	; 0x3e8
    1066:	fb03 f302 	mul.w	r3, r3, r2
    106a:	2b00      	cmp	r3, #0
    106c:	dd08      	ble.n	1080 <wait+0x24>
    106e:	2200      	movs	r2, #0
    1070:	f44f 717a 	mov.w	r1, #1000	; 0x3e8
		count++;
    1074:	3201      	adds	r2, #1
	while (count < d*1000){
    1076:	9b01      	ldr	r3, [sp, #4]
    1078:	fb01 f303 	mul.w	r3, r1, r3
    107c:	4293      	cmp	r3, r2
    107e:	dcf9      	bgt.n	1074 <wait+0x18>
	}
}
    1080:	b002      	add	sp, #8
    1082:	4770      	bx	lr

00001084 <convert>:

/* Converts an int into a char so that it can be displayed*/

void convert(int *a){
    1084:	e92d 4ff8 	stmdb	sp!, {r3, r4, r5, r6, r7, r8, r9, sl, fp, lr}
	int y = *a;
    1088:	6801      	ldr	r1, [r0, #0]
	int i = 100;   //divisor
	int j = 0;  //array counter
	int m = 1;  //counter
	int n = 100;    //increment to divisor
    108a:	2564      	movs	r5, #100	; 0x64
	int m = 1;  //counter
    108c:	2001      	movs	r0, #1
	int j = 0;  //array counter
    108e:	2400      	movs	r4, #0
	int i = 100;   //divisor
    1090:	462a      	mov	r2, r5
				i = 10;
				n = 10;
			}
			if(j == 2){
				i = 1;
				n = 1;
    1092:	4607      	mov	r7, r0
				convert_array[j++] = 'A';
    1094:	4e32      	ldr	r6, [pc, #200]	; (1160 <convert+0xdc>)
    1096:	f04f 0b41 	mov.w	fp, #65	; 0x41
				convert_array[j++] = '9';
    109a:	f04f 0a39 	mov.w	sl, #57	; 0x39
				convert_array[j++] = '8';
    109e:	f04f 0938 	mov.w	r9, #56	; 0x38
				convert_array[j++] = '7';
    10a2:	f04f 0837 	mov.w	r8, #55	; 0x37
				convert_array[j++] = '6';
    10a6:	f04f 0c36 	mov.w	ip, #54	; 0x36
				convert_array[j++] = '5';
    10aa:	f04f 0e35 	mov.w	lr, #53	; 0x35
    10ae:	e01d      	b.n	10ec <convert+0x68>
			m = 1;
    10b0:	4620      	mov	r0, r4
				n = 10;
    10b2:	250a      	movs	r5, #10
				i = 10;
    10b4:	462a      	mov	r2, r5
    10b6:	e019      	b.n	10ec <convert+0x68>
				n = 1;
    10b8:	463d      	mov	r5, r7
			m = 1;
    10ba:	4638      	mov	r0, r7
				i = 1;
    10bc:	463a      	mov	r2, r7
    10be:	e015      	b.n	10ec <convert+0x68>
			int p = (m-1);
    10c0:	3801      	subs	r0, #1
			switch(p) {
    10c2:	2809      	cmp	r0, #9
    10c4:	d83f      	bhi.n	1146 <convert+0xc2>
    10c6:	e8df f000 	tbb	[pc, r0]
    10ca:	1a05      	.short	0x1a05
    10cc:	2a26221e 	.word	0x2a26221e
    10d0:	3a36322e 	.word	0x3a36322e
				convert_array[j++] = '0';
    10d4:	2330      	movs	r3, #48	; 0x30
    10d6:	5533      	strb	r3, [r6, r4]
    10d8:	3401      	adds	r4, #1
			y = y - (n*(m-1));
    10da:	fb05 1110 	mls	r1, r5, r0, r1
			if(j == 1){
    10de:	2c01      	cmp	r4, #1
    10e0:	d0e6      	beq.n	10b0 <convert+0x2c>
			if(j == 2){
    10e2:	2c02      	cmp	r4, #2
    10e4:	d0e8      	beq.n	10b8 <convert+0x34>
			m = 1;
    10e6:	2001      	movs	r0, #1
	while(j <= 3){
    10e8:	2c03      	cmp	r4, #3
    10ea:	dc30      	bgt.n	114e <convert+0xca>
		int b = y % i;
    10ec:	fb91 f3f2 	sdiv	r3, r1, r2
    10f0:	fb02 1313 	mls	r3, r2, r3, r1
		if(b == y) {
    10f4:	428b      	cmp	r3, r1
    10f6:	d0e3      	beq.n	10c0 <convert+0x3c>
			}
			
		}
		else{
			m++;
    10f8:	3001      	adds	r0, #1
			i = i + n;
    10fa:	442a      	add	r2, r5
    10fc:	e7f4      	b.n	10e8 <convert+0x64>
				convert_array[j++] = '1';
    10fe:	2331      	movs	r3, #49	; 0x31
    1100:	5533      	strb	r3, [r6, r4]
    1102:	3401      	adds	r4, #1
				break;
    1104:	e7e9      	b.n	10da <convert+0x56>
				convert_array[j++] = '2';
    1106:	2332      	movs	r3, #50	; 0x32
    1108:	5533      	strb	r3, [r6, r4]
    110a:	3401      	adds	r4, #1
				break;
    110c:	e7e5      	b.n	10da <convert+0x56>
				convert_array[j++] = '3';
    110e:	2333      	movs	r3, #51	; 0x33
    1110:	5533      	strb	r3, [r6, r4]
    1112:	3401      	adds	r4, #1
				break;
    1114:	e7e1      	b.n	10da <convert+0x56>
				convert_array[j++] = '4';
    1116:	2334      	movs	r3, #52	; 0x34
    1118:	5533      	strb	r3, [r6, r4]
    111a:	3401      	adds	r4, #1
				break;
    111c:	e7dd      	b.n	10da <convert+0x56>
				convert_array[j++] = '5';
    111e:	f806 e004 	strb.w	lr, [r6, r4]
    1122:	3401      	adds	r4, #1
				break;
    1124:	e7d9      	b.n	10da <convert+0x56>
				convert_array[j++] = '6';
    1126:	f806 c004 	strb.w	ip, [r6, r4]
    112a:	3401      	adds	r4, #1
				break;
    112c:	e7d5      	b.n	10da <convert+0x56>
				convert_array[j++] = '7';
    112e:	f806 8004 	strb.w	r8, [r6, r4]
    1132:	3401      	adds	r4, #1
				break;
    1134:	e7d1      	b.n	10da <convert+0x56>
				convert_array[j++] = '8';
    1136:	f806 9004 	strb.w	r9, [r6, r4]
    113a:	3401      	adds	r4, #1
				break;
    113c:	e7cd      	b.n	10da <convert+0x56>
				convert_array[j++] = '9';
    113e:	f806 a004 	strb.w	sl, [r6, r4]
    1142:	3401      	adds	r4, #1
				break;
    1144:	e7c9      	b.n	10da <convert+0x56>
				convert_array[j++] = 'A';
    1146:	f806 b004 	strb.w	fp, [r6, r4]
    114a:	3401      	adds	r4, #1
				break;
    114c:	e7c5      	b.n	10da <convert+0x56>
		}
	}
	convert_array[3] = 0;	//force pointer to end here
    114e:	2200      	movs	r2, #0
    1150:	4b03      	ldr	r3, [pc, #12]	; (1160 <convert+0xdc>)
    1152:	70da      	strb	r2, [r3, #3]
	write_terminal(convert_array_ptr);
    1154:	4b03      	ldr	r3, [pc, #12]	; (1164 <convert+0xe0>)
    1156:	6818      	ldr	r0, [r3, #0]
    1158:	4b03      	ldr	r3, [pc, #12]	; (1168 <convert+0xe4>)
    115a:	4798      	blx	r3
    115c:	e8bd 8ff8 	ldmia.w	sp!, {r3, r4, r5, r6, r7, r8, r9, sl, fp, pc}
    1160:	20000bf4 	.word	0x20000bf4
    1164:	20000bf8 	.word	0x20000bf8
    1168:	000004d5 	.word	0x000004d5
    116c:	00000000 	.word	0x00000000

00001170 <main>:
int main(void){
    1170:	e92d 47f0 	stmdb	sp!, {r4, r5, r6, r7, r8, r9, sl, lr}
    1174:	b086      	sub	sp, #24
    SystemInit();	
    1176:	4b8c      	ldr	r3, [pc, #560]	; (13a8 <main+0x238>)
    1178:	4798      	blx	r3
	clock_setup();
    117a:	4b8c      	ldr	r3, [pc, #560]	; (13ac <main+0x23c>)
    117c:	4798      	blx	r3
	porB->DIRSET.reg = D00 | D01 | D02 | D03;	//PB26, PB27, PB28, PB29 //digital outputs
    117e:	f04f 5270 	mov.w	r2, #1006632960	; 0x3c000000
    1182:	4b8b      	ldr	r3, [pc, #556]	; (13b0 <main+0x240>)
    1184:	f8c3 2088 	str.w	r2, [r3, #136]	; 0x88
	terminal_UART_setup();	
    1188:	4b8a      	ldr	r3, [pc, #552]	; (13b4 <main+0x244>)
    118a:	4798      	blx	r3
	SPI_setup();	
    118c:	4b8a      	ldr	r3, [pc, #552]	; (13b8 <main+0x248>)
    118e:	4798      	blx	r3
	ADC_0_Setup();
    1190:	4b8a      	ldr	r3, [pc, #552]	; (13bc <main+0x24c>)
    1192:	4798      	blx	r3
	ADC_1_Setup();
    1194:	4b8a      	ldr	r3, [pc, #552]	; (13c0 <main+0x250>)
    1196:	4798      	blx	r3
	rtd_TC_Setup();
    1198:	4b8a      	ldr	r3, [pc, #552]	; (13c4 <main+0x254>)
    119a:	4798      	blx	r3
	rtd_port_setup();
    119c:	4b8a      	ldr	r3, [pc, #552]	; (13c8 <main+0x258>)
    119e:	4798      	blx	r3
	COMM_Port_Setup();
    11a0:	4b8a      	ldr	r3, [pc, #552]	; (13cc <main+0x25c>)
    11a2:	4798      	blx	r3
	laser0_control_UART_setup();
    11a4:	4b8a      	ldr	r3, [pc, #552]	; (13d0 <main+0x260>)
    11a6:	4798      	blx	r3
	laser1_control_UART_setup();
    11a8:	4b8a      	ldr	r3, [pc, #552]	; (13d4 <main+0x264>)
    11aa:	4798      	blx	r3
 	laser_port_setup();
    11ac:	4b8a      	ldr	r3, [pc, #552]	; (13d8 <main+0x268>)
    11ae:	4798      	blx	r3
	laser_key_EIC_setup ();
    11b0:	4b8a      	ldr	r3, [pc, #552]	; (13dc <main+0x26c>)
    11b2:	4798      	blx	r3
	laser_key_delay_timer_setup();
    11b4:	4b8a      	ldr	r3, [pc, #552]	; (13e0 <main+0x270>)
    11b6:	4798      	blx	r3
 	laser_start_seq();
    11b8:	4b8a      	ldr	r3, [pc, #552]	; (13e4 <main+0x274>)
    11ba:	4798      	blx	r3
	motor_port_setup();
    11bc:	4b8a      	ldr	r3, [pc, #552]	; (13e8 <main+0x278>)
    11be:	4798      	blx	r3
	motor_EIC_setup();
    11c0:	4b8a      	ldr	r3, [pc, #552]	; (13ec <main+0x27c>)
    11c2:	4798      	blx	r3
	volatile char start_array[] = "\nStart\n";
    11c4:	4a8a      	ldr	r2, [pc, #552]	; (13f0 <main+0x280>)
    11c6:	ab04      	add	r3, sp, #16
    11c8:	e892 0003 	ldmia.w	r2, {r0, r1}
    11cc:	e883 0003 	stmia.w	r3, {r0, r1}
	write_terminal(start_array_ptr);
    11d0:	4618      	mov	r0, r3
    11d2:	4b88      	ldr	r3, [pc, #544]	; (13f4 <main+0x284>)
    11d4:	4798      	blx	r3
	motor_hone();
    11d6:	4b88      	ldr	r3, [pc, #544]	; (13f8 <main+0x288>)
    11d8:	4798      	blx	r3
	RTD_array_ptr = RTD_array;
    11da:	4a88      	ldr	r2, [pc, #544]	; (13fc <main+0x28c>)
    11dc:	4b88      	ldr	r3, [pc, #544]	; (1400 <main+0x290>)
    11de:	601a      	str	r2, [r3, #0]
	terminal_input_array_ptr = terminal_input_Array;
    11e0:	4a88      	ldr	r2, [pc, #544]	; (1404 <main+0x294>)
    11e2:	4b89      	ldr	r3, [pc, #548]	; (1408 <main+0x298>)
    11e4:	601a      	str	r2, [r3, #0]
	menu_ptr = menu_array;
    11e6:	4a89      	ldr	r2, [pc, #548]	; (140c <main+0x29c>)
    11e8:	4b89      	ldr	r3, [pc, #548]	; (1410 <main+0x2a0>)
    11ea:	601a      	str	r2, [r3, #0]
	DAC_array_ptr = DAC_array;
    11ec:	4a89      	ldr	r2, [pc, #548]	; (1414 <main+0x2a4>)
    11ee:	4b8a      	ldr	r3, [pc, #552]	; (1418 <main+0x2a8>)
    11f0:	601a      	str	r2, [r3, #0]
	convert_array_ptr = convert_array;
    11f2:	4a8a      	ldr	r2, [pc, #552]	; (141c <main+0x2ac>)
    11f4:	4b8a      	ldr	r3, [pc, #552]	; (1420 <main+0x2b0>)
    11f6:	601a      	str	r2, [r3, #0]
	laser0_response_array_ptr = laser0_response_array;
    11f8:	4a8a      	ldr	r2, [pc, #552]	; (1424 <main+0x2b4>)
    11fa:	4b8b      	ldr	r3, [pc, #556]	; (1428 <main+0x2b8>)
    11fc:	601a      	str	r2, [r3, #0]
	laser1_response_array_ptr = laser1_response_array;
    11fe:	4a8b      	ldr	r2, [pc, #556]	; (142c <main+0x2bc>)
    1200:	4b8b      	ldr	r3, [pc, #556]	; (1430 <main+0x2c0>)
    1202:	601a      	str	r2, [r3, #0]
		if(receive_key == 13){	//look for carriage return
    1204:	4c8b      	ldr	r4, [pc, #556]	; (1434 <main+0x2c4>)
			if(((*terminal_input_array_ptr == 'm') || (*terminal_input_array_ptr == 'M')) && (receive_count = 1)){	
    1206:	f8df 8200 	ldr.w	r8, [pc, #512]	; 1408 <main+0x298>
				volatile float result = (((float)ADC_result / 255) * 5);	//CHANGED float got changed from double
    120a:	f8df a278 	ldr.w	sl, [pc, #632]	; 1484 <main+0x314>
    120e:	f8df 9278 	ldr.w	r9, [pc, #632]	; 1488 <main+0x318>
				result = (result - 1.375)/ .0225;
    1212:	2600      	movs	r6, #0
    1214:	4f88      	ldr	r7, [pc, #544]	; (1438 <main+0x2c8>)
    1216:	e009      	b.n	122c <main+0xbc>
			if(((*terminal_input_array_ptr == 'm') || (*terminal_input_array_ptr == 'M')) && (receive_count = 1)){	
    1218:	4d88      	ldr	r5, [pc, #544]	; (143c <main+0x2cc>)
    121a:	2301      	movs	r3, #1
    121c:	602b      	str	r3, [r5, #0]
				write_menu(menu_ptr);
    121e:	4b7c      	ldr	r3, [pc, #496]	; (1410 <main+0x2a0>)
    1220:	6818      	ldr	r0, [r3, #0]
    1222:	4b87      	ldr	r3, [pc, #540]	; (1440 <main+0x2d0>)
    1224:	4798      	blx	r3
				receive_count = 0;
    1226:	2300      	movs	r3, #0
    1228:	602b      	str	r3, [r5, #0]
				receive_key = 0;
    122a:	7023      	strb	r3, [r4, #0]
		if(receive_key == 13){	//look for carriage return
    122c:	7823      	ldrb	r3, [r4, #0]
    122e:	b2db      	uxtb	r3, r3
    1230:	2b0d      	cmp	r3, #13
    1232:	d1fb      	bne.n	122c <main+0xbc>
			if(((*terminal_input_array_ptr == 'm') || (*terminal_input_array_ptr == 'M')) && (receive_count = 1)){	
    1234:	f8d8 3000 	ldr.w	r3, [r8]
    1238:	781a      	ldrb	r2, [r3, #0]
    123a:	b2d2      	uxtb	r2, r2
    123c:	2a6d      	cmp	r2, #109	; 0x6d
    123e:	d0eb      	beq.n	1218 <main+0xa8>
    1240:	781a      	ldrb	r2, [r3, #0]
    1242:	b2d2      	uxtb	r2, r2
    1244:	2a4d      	cmp	r2, #77	; 0x4d
    1246:	d0e7      	beq.n	1218 <main+0xa8>
			else if(((*terminal_input_array_ptr == 't') || (*terminal_input_array_ptr == 'T')) && (receive_count = 1)){	
    1248:	781a      	ldrb	r2, [r3, #0]
    124a:	b2d2      	uxtb	r2, r2
    124c:	2a74      	cmp	r2, #116	; 0x74
    124e:	d036      	beq.n	12be <main+0x14e>
    1250:	781a      	ldrb	r2, [r3, #0]
    1252:	b2d2      	uxtb	r2, r2
    1254:	2a54      	cmp	r2, #84	; 0x54
    1256:	d032      	beq.n	12be <main+0x14e>
			else if(((*terminal_input_array_ptr == 'c') || (*terminal_input_array_ptr == 'C')) && (receive_count = 1)){
    1258:	781a      	ldrb	r2, [r3, #0]
    125a:	b2d2      	uxtb	r2, r2
    125c:	2a63      	cmp	r2, #99	; 0x63
    125e:	d06f      	beq.n	1340 <main+0x1d0>
    1260:	781a      	ldrb	r2, [r3, #0]
    1262:	b2d2      	uxtb	r2, r2
    1264:	2a43      	cmp	r2, #67	; 0x43
    1266:	d06b      	beq.n	1340 <main+0x1d0>
			else if(((*terminal_input_array_ptr == 'k') || (*terminal_input_array_ptr == 'K')) && (receive_count = 4)){	
    1268:	781a      	ldrb	r2, [r3, #0]
    126a:	b2d2      	uxtb	r2, r2
    126c:	2a6b      	cmp	r2, #107	; 0x6b
    126e:	d070      	beq.n	1352 <main+0x1e2>
    1270:	781a      	ldrb	r2, [r3, #0]
    1272:	b2d2      	uxtb	r2, r2
    1274:	2a4b      	cmp	r2, #75	; 0x4b
    1276:	d06c      	beq.n	1352 <main+0x1e2>
			else if(((*terminal_input_array_ptr == 'd') || (*terminal_input_array_ptr == 'D')) && (receive_count = 5)){	
    1278:	781a      	ldrb	r2, [r3, #0]
    127a:	b2d2      	uxtb	r2, r2
    127c:	2a64      	cmp	r2, #100	; 0x64
    127e:	d071      	beq.n	1364 <main+0x1f4>
    1280:	781a      	ldrb	r2, [r3, #0]
    1282:	b2d2      	uxtb	r2, r2
    1284:	2a44      	cmp	r2, #68	; 0x44
    1286:	d06d      	beq.n	1364 <main+0x1f4>
			else if(((*terminal_input_array_ptr == 'e') || (*terminal_input_array_ptr == 'E')) && (receive_count = 3)){
    1288:	781a      	ldrb	r2, [r3, #0]
    128a:	b2d2      	uxtb	r2, r2
    128c:	2a65      	cmp	r2, #101	; 0x65
    128e:	d072      	beq.n	1376 <main+0x206>
    1290:	781a      	ldrb	r2, [r3, #0]
    1292:	b2d2      	uxtb	r2, r2
    1294:	2a45      	cmp	r2, #69	; 0x45
    1296:	d06e      	beq.n	1376 <main+0x206>
			else if(((*terminal_input_array_ptr == 'l') || (*terminal_input_array_ptr == 'L')) && (receive_count = 3)){
    1298:	781a      	ldrb	r2, [r3, #0]
    129a:	b2d2      	uxtb	r2, r2
    129c:	2a6c      	cmp	r2, #108	; 0x6c
    129e:	d073      	beq.n	1388 <main+0x218>
    12a0:	781b      	ldrb	r3, [r3, #0]
    12a2:	b2db      	uxtb	r3, r3
    12a4:	2b4c      	cmp	r3, #76	; 0x4c
    12a6:	d06f      	beq.n	1388 <main+0x218>
				volatile char Invalid_message_Arr[] = "\n?\n";
    12a8:	a806      	add	r0, sp, #24
    12aa:	4b66      	ldr	r3, [pc, #408]	; (1444 <main+0x2d4>)
    12ac:	f840 3d0c 	str.w	r3, [r0, #-12]!
				write_terminal(Invalid_message_Ptr);
    12b0:	4b50      	ldr	r3, [pc, #320]	; (13f4 <main+0x284>)
    12b2:	4798      	blx	r3
				receive_count = 0;
    12b4:	2300      	movs	r3, #0
    12b6:	4a61      	ldr	r2, [pc, #388]	; (143c <main+0x2cc>)
    12b8:	6013      	str	r3, [r2, #0]
				receive_key = 0;
    12ba:	7023      	strb	r3, [r4, #0]
    12bc:	e7b6      	b.n	122c <main+0xbc>
			else if(((*terminal_input_array_ptr == 't') || (*terminal_input_array_ptr == 'T')) && (receive_count = 1)){	
    12be:	2201      	movs	r2, #1
    12c0:	4b5e      	ldr	r3, [pc, #376]	; (143c <main+0x2cc>)
    12c2:	601a      	str	r2, [r3, #0]
				ADC1->INPUTCTRL.reg = ADC_INPUTCTRL_MUXNEG_GND | ADC_INPUTCTRL_MUXPOS_AIN6;	//AIN6=PB04
    12c4:	f641 0206 	movw	r2, #6150	; 0x1806
    12c8:	4b5f      	ldr	r3, [pc, #380]	; (1448 <main+0x2d8>)
    12ca:	809a      	strh	r2, [r3, #4]
				while (ADC1->SYNCBUSY.bit.INPUTCTRL){}	//wait for sync to complete
    12cc:	461a      	mov	r2, r3
    12ce:	6b13      	ldr	r3, [r2, #48]	; 0x30
    12d0:	f013 0f04 	tst.w	r3, #4
    12d4:	d1fb      	bne.n	12ce <main+0x15e>
				ADC1->SWTRIG.reg = 1;	//trigger ADC to start conversion	//CHANGED
    12d6:	2201      	movs	r2, #1
    12d8:	4b5b      	ldr	r3, [pc, #364]	; (1448 <main+0x2d8>)
    12da:	751a      	strb	r2, [r3, #20]
				while(ADC1->INTFLAG.bit.RESRDY == 0){}	//wait for conversion
    12dc:	461a      	mov	r2, r3
    12de:	f892 302e 	ldrb.w	r3, [r2, #46]	; 0x2e
    12e2:	f013 0f01 	tst.w	r3, #1
    12e6:	d0fa      	beq.n	12de <main+0x16e>
				volatile int ADC_result = ADC1->RESULT.reg;	//read ADC conversion result
    12e8:	4b57      	ldr	r3, [pc, #348]	; (1448 <main+0x2d8>)
    12ea:	f8b3 3040 	ldrh.w	r3, [r3, #64]	; 0x40
    12ee:	b29b      	uxth	r3, r3
    12f0:	9300      	str	r3, [sp, #0]
				volatile float result = (((float)ADC_result / 255) * 5);	//CHANGED float got changed from double
    12f2:	9800      	ldr	r0, [sp, #0]
    12f4:	4b55      	ldr	r3, [pc, #340]	; (144c <main+0x2dc>)
    12f6:	4798      	blx	r3
    12f8:	4651      	mov	r1, sl
    12fa:	4b55      	ldr	r3, [pc, #340]	; (1450 <main+0x2e0>)
    12fc:	4798      	blx	r3
    12fe:	4649      	mov	r1, r9
    1300:	4b54      	ldr	r3, [pc, #336]	; (1454 <main+0x2e4>)
    1302:	4798      	blx	r3
    1304:	9001      	str	r0, [sp, #4]
				result = (result - 1.375)/ .0225;
    1306:	9801      	ldr	r0, [sp, #4]
    1308:	4b53      	ldr	r3, [pc, #332]	; (1458 <main+0x2e8>)
    130a:	4798      	blx	r3
    130c:	4632      	mov	r2, r6
    130e:	463b      	mov	r3, r7
    1310:	4d52      	ldr	r5, [pc, #328]	; (145c <main+0x2ec>)
    1312:	47a8      	blx	r5
    1314:	a322      	add	r3, pc, #136	; (adr r3, 13a0 <main+0x230>)
    1316:	e9d3 2300 	ldrd	r2, r3, [r3]
    131a:	4d51      	ldr	r5, [pc, #324]	; (1460 <main+0x2f0>)
    131c:	47a8      	blx	r5
    131e:	4b51      	ldr	r3, [pc, #324]	; (1464 <main+0x2f4>)
    1320:	4798      	blx	r3
    1322:	9001      	str	r0, [sp, #4]
				int temp = (int)result;
    1324:	9801      	ldr	r0, [sp, #4]
    1326:	4b50      	ldr	r3, [pc, #320]	; (1468 <main+0x2f8>)
    1328:	4798      	blx	r3
    132a:	ab06      	add	r3, sp, #24
    132c:	f843 0d10 	str.w	r0, [r3, #-16]!
				convert(temp1);
    1330:	4618      	mov	r0, r3
    1332:	4b4e      	ldr	r3, [pc, #312]	; (146c <main+0x2fc>)
    1334:	4798      	blx	r3
				receive_count = 0;
    1336:	2300      	movs	r3, #0
    1338:	4a40      	ldr	r2, [pc, #256]	; (143c <main+0x2cc>)
    133a:	6013      	str	r3, [r2, #0]
				receive_key = 0;
    133c:	7023      	strb	r3, [r4, #0]
			else if(((*terminal_input_array_ptr == 't') || (*terminal_input_array_ptr == 'T')) && (receive_count = 1)){	
    133e:	e775      	b.n	122c <main+0xbc>
			else if(((*terminal_input_array_ptr == 'c') || (*terminal_input_array_ptr == 'C')) && (receive_count = 1)){
    1340:	4d3e      	ldr	r5, [pc, #248]	; (143c <main+0x2cc>)
    1342:	2301      	movs	r3, #1
    1344:	602b      	str	r3, [r5, #0]
				display_RTDs();
    1346:	4b4a      	ldr	r3, [pc, #296]	; (1470 <main+0x300>)
    1348:	4798      	blx	r3
				receive_count = 0;
    134a:	2300      	movs	r3, #0
    134c:	602b      	str	r3, [r5, #0]
				receive_key = 0;
    134e:	7023      	strb	r3, [r4, #0]
    1350:	e76c      	b.n	122c <main+0xbc>
			else if(((*terminal_input_array_ptr == 'k') || (*terminal_input_array_ptr == 'K')) && (receive_count = 4)){	
    1352:	4a3a      	ldr	r2, [pc, #232]	; (143c <main+0x2cc>)
    1354:	2304      	movs	r3, #4
    1356:	6013      	str	r3, [r2, #0]
				receive_count = 0;
    1358:	2300      	movs	r3, #0
    135a:	6013      	str	r3, [r2, #0]
				receive_key = 0;
    135c:	7023      	strb	r3, [r4, #0]
				port_control();
    135e:	4b45      	ldr	r3, [pc, #276]	; (1474 <main+0x304>)
    1360:	4798      	blx	r3
    1362:	e763      	b.n	122c <main+0xbc>
			else if(((*terminal_input_array_ptr == 'd') || (*terminal_input_array_ptr == 'D')) && (receive_count = 5)){	
    1364:	4a35      	ldr	r2, [pc, #212]	; (143c <main+0x2cc>)
    1366:	2305      	movs	r3, #5
    1368:	6013      	str	r3, [r2, #0]
				receive_count = 0;
    136a:	2300      	movs	r3, #0
    136c:	6013      	str	r3, [r2, #0]
				receive_key = 0;
    136e:	7023      	strb	r3, [r4, #0]
				DAC_select();
    1370:	4b41      	ldr	r3, [pc, #260]	; (1478 <main+0x308>)
    1372:	4798      	blx	r3
    1374:	e75a      	b.n	122c <main+0xbc>
			else if(((*terminal_input_array_ptr == 'e') || (*terminal_input_array_ptr == 'E')) && (receive_count = 3)){
    1376:	4a31      	ldr	r2, [pc, #196]	; (143c <main+0x2cc>)
    1378:	2303      	movs	r3, #3
    137a:	6013      	str	r3, [r2, #0]
				receive_count = 0;
    137c:	2300      	movs	r3, #0
    137e:	6013      	str	r3, [r2, #0]
				receive_key = 0;
    1380:	7023      	strb	r3, [r4, #0]
				laser_info_com();
    1382:	4b3e      	ldr	r3, [pc, #248]	; (147c <main+0x30c>)
    1384:	4798      	blx	r3
    1386:	e751      	b.n	122c <main+0xbc>
			else if(((*terminal_input_array_ptr == 'l') || (*terminal_input_array_ptr == 'L')) && (receive_count = 3)){
    1388:	4a2c      	ldr	r2, [pc, #176]	; (143c <main+0x2cc>)
    138a:	2303      	movs	r3, #3
    138c:	6013      	str	r3, [r2, #0]
				receive_count = 0;
    138e:	2300      	movs	r3, #0
    1390:	6013      	str	r3, [r2, #0]
				receive_key = 0;
    1392:	7023      	strb	r3, [r4, #0]
				laser_com();
    1394:	4b3a      	ldr	r3, [pc, #232]	; (1480 <main+0x310>)
    1396:	4798      	blx	r3
    1398:	e748      	b.n	122c <main+0xbc>
    139a:	bf00      	nop
    139c:	f3af 8000 	nop.w
    13a0:	70a3d70a 	.word	0x70a3d70a
    13a4:	3f970a3d 	.word	0x3f970a3d
    13a8:	00000745 	.word	0x00000745
    13ac:	00000e4d 	.word	0x00000e4d
    13b0:	41008000 	.word	0x41008000
    13b4:	00000385 	.word	0x00000385
    13b8:	00000465 	.word	0x00000465
    13bc:	00001835 	.word	0x00001835
    13c0:	000017b9 	.word	0x000017b9
    13c4:	000018b1 	.word	0x000018b1
    13c8:	000016b9 	.word	0x000016b9
    13cc:	000002d1 	.word	0x000002d1
    13d0:	000007d9 	.word	0x000007d9
    13d4:	00000881 	.word	0x00000881
    13d8:	00000755 	.word	0x00000755
    13dc:	00000cd1 	.word	0x00000cd1
    13e0:	00000d6d 	.word	0x00000d6d
    13e4:	00000c89 	.word	0x00000c89
    13e8:	0000148d 	.word	0x0000148d
    13ec:	000014b9 	.word	0x000014b9
    13f0:	000029d8 	.word	0x000029d8
    13f4:	000004d5 	.word	0x000004d5
    13f8:	0000168d 	.word	0x0000168d
    13fc:	20000b8c 	.word	0x20000b8c
    1400:	20000c08 	.word	0x20000c08
    1404:	20000000 	.word	0x20000000
    1408:	20000bb8 	.word	0x20000bb8
    140c:	20000070 	.word	0x20000070
    1410:	20000bfc 	.word	0x20000bfc
    1414:	20000bbc 	.word	0x20000bbc
    1418:	20000bb0 	.word	0x20000bb0
    141c:	20000bf4 	.word	0x20000bf4
    1420:	20000bf8 	.word	0x20000bf8
    1424:	20000bd8 	.word	0x20000bd8
    1428:	20000bf0 	.word	0x20000bf0
    142c:	20000bc0 	.word	0x20000bc0
    1430:	20000bd4 	.word	0x20000bd4
    1434:	20000bb4 	.word	0x20000bb4
    1438:	3ff60000 	.word	0x3ff60000
    143c:	20000b70 	.word	0x20000b70
    1440:	00000501 	.word	0x00000501
    1444:	000a3f0a 	.word	0x000a3f0a
    1448:	43002000 	.word	0x43002000
    144c:	000024d5 	.word	0x000024d5
    1450:	000026e5 	.word	0x000026e5
    1454:	0000257d 	.word	0x0000257d
    1458:	00001df5 	.word	0x00001df5
    145c:	00001b35 	.word	0x00001b35
    1460:	000020f1 	.word	0x000020f1
    1464:	000022c1 	.word	0x000022c1
    1468:	0000281d 	.word	0x0000281d
    146c:	00001085 	.word	0x00001085
    1470:	00001b0d 	.word	0x00001b0d
    1474:	00000f25 	.word	0x00000f25
    1478:	00000639 	.word	0x00000639
    147c:	00000a09 	.word	0x00000a09
    1480:	00000c05 	.word	0x00000c05
    1484:	437f0000 	.word	0x437f0000
    1488:	40a00000 	.word	0x40a00000

0000148c <motor_port_setup>:
	//PortGroup *porB = &(por->Group[1]);
	//PortGroup *porC = &(por->Group[2]);
	PortGroup *porD = &(por->Group[3]);
	
	/* EIC pitch and catch */
	porA->PMUX[3].bit.PMUXE = 0;	//PA06 EXTINT[6]
    148c:	4b09      	ldr	r3, [pc, #36]	; (14b4 <motor_port_setup+0x28>)
    148e:	f893 2033 	ldrb.w	r2, [r3, #51]	; 0x33
    1492:	f36f 0203 	bfc	r2, #0, #4
    1496:	f883 2033 	strb.w	r2, [r3, #51]	; 0x33
	porA->PINCFG[6].bit.PMUXEN = 1;
    149a:	f893 2046 	ldrb.w	r2, [r3, #70]	; 0x46
    149e:	f042 0201 	orr.w	r2, r2, #1
    14a2:	f883 2046 	strb.w	r2, [r3, #70]	; 0x46
	
	/* Motor */
	porD->DIRSET.reg = A | B | EN | BRAKE;
    14a6:	f44f 6270 	mov.w	r2, #3840	; 0xf00
    14aa:	f8c3 2188 	str.w	r2, [r3, #392]	; 0x188
	porD->OUTCLR.reg = A | B | BRAKE | EN;
    14ae:	f8c3 2194 	str.w	r2, [r3, #404]	; 0x194
    14b2:	4770      	bx	lr
    14b4:	41008000 	.word	0x41008000

000014b8 <motor_EIC_setup>:

}

/* Pitch and catch EIC for Honing */
void motor_EIC_setup(void){
	EIC->CTRLA.reg = 0;
    14b8:	2200      	movs	r2, #0
    14ba:	4b12      	ldr	r3, [pc, #72]	; (1504 <motor_EIC_setup+0x4c>)
    14bc:	701a      	strb	r2, [r3, #0]
	while(EIC->SYNCBUSY.reg){}
    14be:	461a      	mov	r2, r3
    14c0:	6853      	ldr	r3, [r2, #4]
    14c2:	2b00      	cmp	r3, #0
    14c4:	d1fc      	bne.n	14c0 <motor_EIC_setup+0x8>
	EIC->CTRLA.bit.CKSEL = 0;	//EIC is clocked by GCLK
    14c6:	4b0f      	ldr	r3, [pc, #60]	; (1504 <motor_EIC_setup+0x4c>)
    14c8:	781a      	ldrb	r2, [r3, #0]
    14ca:	f36f 1204 	bfc	r2, #4, #1
    14ce:	701a      	strb	r2, [r3, #0]
	EIC->INTENSET.reg |= 1<<6;
    14d0:	691a      	ldr	r2, [r3, #16]
    14d2:	f042 0240 	orr.w	r2, r2, #64	; 0x40
    14d6:	611a      	str	r2, [r3, #16]
	EIC->ASYNCH.reg |= 1<<6;	//asynchronous mode
    14d8:	699a      	ldr	r2, [r3, #24]
    14da:	f042 0240 	orr.w	r2, r2, #64	; 0x40
    14de:	619a      	str	r2, [r3, #24]
	EIC->CONFIG[0].bit.SENSE6 = 4;	//high level detection
    14e0:	69da      	ldr	r2, [r3, #28]
    14e2:	2104      	movs	r1, #4
    14e4:	f361 621a 	bfi	r2, r1, #24, #3
    14e8:	61da      	str	r2, [r3, #28]
	EIC->CTRLA.reg = 1<<1;	//enable
    14ea:	2202      	movs	r2, #2
    14ec:	701a      	strb	r2, [r3, #0]
	while(EIC->SYNCBUSY.reg){}
    14ee:	461a      	mov	r2, r3
    14f0:	6853      	ldr	r3, [r2, #4]
    14f2:	2b00      	cmp	r3, #0
    14f4:	d1fc      	bne.n	14f0 <motor_EIC_setup+0x38>
	NVIC->ISER[0] |= 1<<18;	//enable the NVIC handler
    14f6:	4a04      	ldr	r2, [pc, #16]	; (1508 <motor_EIC_setup+0x50>)
    14f8:	6813      	ldr	r3, [r2, #0]
    14fa:	f443 2380 	orr.w	r3, r3, #262144	; 0x40000
    14fe:	6013      	str	r3, [r2, #0]
    1500:	4770      	bx	lr
    1502:	bf00      	nop
    1504:	40002800 	.word	0x40002800
    1508:	e000e100 	.word	0xe000e100

0000150c <EIC_6_Handler>:
}

/* Pitch and catch EIC handler for Honing */
void EIC_6_Handler(void){
	EIC->INTFLAG.reg = 1<<6;	//clear int flag
    150c:	2240      	movs	r2, #64	; 0x40
    150e:	4b04      	ldr	r3, [pc, #16]	; (1520 <EIC_6_Handler+0x14>)
    1510:	615a      	str	r2, [r3, #20]
	catch = true;
    1512:	2201      	movs	r2, #1
    1514:	4b03      	ldr	r3, [pc, #12]	; (1524 <EIC_6_Handler+0x18>)
    1516:	701a      	strb	r2, [r3, #0]
	steps = 0;
    1518:	2200      	movs	r2, #0
    151a:	4b03      	ldr	r3, [pc, #12]	; (1528 <EIC_6_Handler+0x1c>)
    151c:	601a      	str	r2, [r3, #0]
    151e:	4770      	bx	lr
    1520:	40002800 	.word	0x40002800
    1524:	20000b84 	.word	0x20000b84
    1528:	20000c00 	.word	0x20000c00

0000152c <wait_motor>:

void select_aper(int a){
	
}

void wait_motor(volatile int d){
    152c:	b082      	sub	sp, #8
    152e:	9001      	str	r0, [sp, #4]
	int count = 0;
	while (count < d*10){
    1530:	9b01      	ldr	r3, [sp, #4]
    1532:	eb03 0383 	add.w	r3, r3, r3, lsl #2
    1536:	005b      	lsls	r3, r3, #1
    1538:	2b00      	cmp	r3, #0
    153a:	dd07      	ble.n	154c <wait_motor+0x20>
    153c:	2200      	movs	r2, #0
		count++;
    153e:	3201      	adds	r2, #1
	while (count < d*10){
    1540:	9b01      	ldr	r3, [sp, #4]
    1542:	eb03 0383 	add.w	r3, r3, r3, lsl #2
    1546:	ebb2 0f43 	cmp.w	r2, r3, lsl #1
    154a:	dbf8      	blt.n	153e <wait_motor+0x12>
	}
}
    154c:	b002      	add	sp, #8
    154e:	4770      	bx	lr

00001550 <motor_state_machine>:
void motor_state_machine(int a, int b){
    1550:	e92d 4ff8 	stmdb	sp!, {r3, r4, r5, r6, r7, r8, r9, sl, fp, lr}
	state = a;
    1554:	4b47      	ldr	r3, [pc, #284]	; (1674 <motor_state_machine+0x124>)
    1556:	6018      	str	r0, [r3, #0]
	steps = b;
    1558:	4b47      	ldr	r3, [pc, #284]	; (1678 <motor_state_machine+0x128>)
    155a:	6019      	str	r1, [r3, #0]
	motor_on = true;
    155c:	2201      	movs	r2, #1
    155e:	4b47      	ldr	r3, [pc, #284]	; (167c <motor_state_machine+0x12c>)
    1560:	705a      	strb	r2, [r3, #1]
	while(motor_on){
    1562:	461d      	mov	r5, r3
		switch(state){
    1564:	f8df 810c 	ldr.w	r8, [pc, #268]	; 1674 <motor_state_machine+0x124>
	while(motor_on){
    1568:	e069      	b.n	163e <motor_state_machine+0xee>
			while(count < steps){
    156a:	686a      	ldr	r2, [r5, #4]
    156c:	4b42      	ldr	r3, [pc, #264]	; (1678 <motor_state_machine+0x128>)
    156e:	681b      	ldr	r3, [r3, #0]
    1570:	429a      	cmp	r2, r3
    1572:	da21      	bge.n	15b8 <motor_state_machine+0x68>
				porD->OUTSET.reg = EN;
    1574:	4c42      	ldr	r4, [pc, #264]	; (1680 <motor_state_machine+0x130>)
    1576:	f44f 6b00 	mov.w	fp, #2048	; 0x800
				wait_motor(i);
    157a:	4f42      	ldr	r7, [pc, #264]	; (1684 <motor_state_machine+0x134>)
				porD->OUTSET.reg = EN;
    157c:	f8c4 b198 	str.w	fp, [r4, #408]	; 0x198
				porD->OUTSET.reg = A;
    1580:	f44f 7980 	mov.w	r9, #256	; 0x100
    1584:	f8c4 9198 	str.w	r9, [r4, #408]	; 0x198
				porD->OUTSET.reg = B;
    1588:	f44f 7a00 	mov.w	sl, #512	; 0x200
    158c:	f8c4 a198 	str.w	sl, [r4, #408]	; 0x198
				wait_motor(i);
    1590:	6838      	ldr	r0, [r7, #0]
    1592:	4e3d      	ldr	r6, [pc, #244]	; (1688 <motor_state_machine+0x138>)
    1594:	47b0      	blx	r6
				porD->OUTCLR.reg = A;
    1596:	f8c4 9194 	str.w	r9, [r4, #404]	; 0x194
				wait_motor(i);
    159a:	6838      	ldr	r0, [r7, #0]
    159c:	47b0      	blx	r6
				porD->OUTCLR.reg = B;
    159e:	f8c4 a194 	str.w	sl, [r4, #404]	; 0x194
				wait_motor(i);
    15a2:	6838      	ldr	r0, [r7, #0]
    15a4:	47b0      	blx	r6
				porD->OUTSET.reg = A;
    15a6:	f8c4 9198 	str.w	r9, [r4, #408]	; 0x198
				wait_motor(i);
    15aa:	6838      	ldr	r0, [r7, #0]
    15ac:	47b0      	blx	r6
			while(count < steps){
    15ae:	686a      	ldr	r2, [r5, #4]
    15b0:	4b31      	ldr	r3, [pc, #196]	; (1678 <motor_state_machine+0x128>)
    15b2:	681b      	ldr	r3, [r3, #0]
    15b4:	429a      	cmp	r2, r3
    15b6:	dbe1      	blt.n	157c <motor_state_machine+0x2c>
			count = 0;
    15b8:	2300      	movs	r3, #0
    15ba:	606b      	str	r3, [r5, #4]
			state = 0;	//go to brake state
    15bc:	f8c8 3000 	str.w	r3, [r8]
			break;
    15c0:	e03d      	b.n	163e <motor_state_machine+0xee>
			while(count < steps){
    15c2:	686a      	ldr	r2, [r5, #4]
    15c4:	4b2c      	ldr	r3, [pc, #176]	; (1678 <motor_state_machine+0x128>)
    15c6:	681b      	ldr	r3, [r3, #0]
    15c8:	429a      	cmp	r2, r3
    15ca:	da24      	bge.n	1616 <motor_state_machine+0xc6>
				porD->OUTSET.reg = EN;
    15cc:	4c2c      	ldr	r4, [pc, #176]	; (1680 <motor_state_machine+0x130>)
    15ce:	f44f 6900 	mov.w	r9, #2048	; 0x800
				wait_motor(i);
    15d2:	4f2c      	ldr	r7, [pc, #176]	; (1684 <motor_state_machine+0x134>)
				porD->OUTSET.reg = EN;
    15d4:	f8c4 9198 	str.w	r9, [r4, #408]	; 0x198
				porD->OUTSET.reg = A;
    15d8:	f44f 7a80 	mov.w	sl, #256	; 0x100
    15dc:	f8c4 a198 	str.w	sl, [r4, #408]	; 0x198
				porD->OUTCLR.reg = B;
    15e0:	f44f 7b00 	mov.w	fp, #512	; 0x200
    15e4:	f8c4 b194 	str.w	fp, [r4, #404]	; 0x194
				wait_motor(i);
    15e8:	6838      	ldr	r0, [r7, #0]
    15ea:	4e27      	ldr	r6, [pc, #156]	; (1688 <motor_state_machine+0x138>)
    15ec:	47b0      	blx	r6
				porD->OUTCLR.reg = A;
    15ee:	f8c4 a194 	str.w	sl, [r4, #404]	; 0x194
				wait_motor(i);
    15f2:	6838      	ldr	r0, [r7, #0]
    15f4:	47b0      	blx	r6
				porD->OUTSET.reg = B;
    15f6:	f8c4 b198 	str.w	fp, [r4, #408]	; 0x198
				wait_motor(i);
    15fa:	6838      	ldr	r0, [r7, #0]
    15fc:	47b0      	blx	r6
				porD->OUTSET.reg = A;
    15fe:	f8c4 a198 	str.w	sl, [r4, #408]	; 0x198
				wait_motor(i);
    1602:	6838      	ldr	r0, [r7, #0]
    1604:	47b0      	blx	r6
				count++;
    1606:	686b      	ldr	r3, [r5, #4]
    1608:	3301      	adds	r3, #1
    160a:	606b      	str	r3, [r5, #4]
			while(count < steps){
    160c:	686a      	ldr	r2, [r5, #4]
    160e:	4b1a      	ldr	r3, [pc, #104]	; (1678 <motor_state_machine+0x128>)
    1610:	681b      	ldr	r3, [r3, #0]
    1612:	429a      	cmp	r2, r3
    1614:	dbde      	blt.n	15d4 <motor_state_machine+0x84>
			state = 0;	//go to brake state
    1616:	2300      	movs	r3, #0
    1618:	f8c8 3000 	str.w	r3, [r8]
			count = 0;
    161c:	606b      	str	r3, [r5, #4]
			break;
    161e:	e00e      	b.n	163e <motor_state_machine+0xee>
			porD->OUTSET.reg = BRAKE;
    1620:	4c17      	ldr	r4, [pc, #92]	; (1680 <motor_state_machine+0x130>)
    1622:	f44f 6380 	mov.w	r3, #1024	; 0x400
    1626:	f8c4 3198 	str.w	r3, [r4, #408]	; 0x198
			wait_motor(10);
    162a:	200a      	movs	r0, #10
    162c:	4b16      	ldr	r3, [pc, #88]	; (1688 <motor_state_machine+0x138>)
    162e:	4798      	blx	r3
			porD->OUTCLR.reg = EN;
    1630:	f44f 6300 	mov.w	r3, #2048	; 0x800
    1634:	f8c4 3194 	str.w	r3, [r4, #404]	; 0x194
			state = 5;	//go to idle state
    1638:	2305      	movs	r3, #5
    163a:	f8c8 3000 	str.w	r3, [r8]
	while(motor_on){
    163e:	786b      	ldrb	r3, [r5, #1]
    1640:	b1ab      	cbz	r3, 166e <motor_state_machine+0x11e>
		switch(state){
    1642:	f8d8 3000 	ldr.w	r3, [r8]
    1646:	2b05      	cmp	r3, #5
    1648:	d8f9      	bhi.n	163e <motor_state_machine+0xee>
    164a:	a201      	add	r2, pc, #4	; (adr r2, 1650 <motor_state_machine+0x100>)
    164c:	f852 f023 	ldr.w	pc, [r2, r3, lsl #2]
    1650:	00001621 	.word	0x00001621
    1654:	000015c3 	.word	0x000015c3
    1658:	0000156b 	.word	0x0000156b
    165c:	0000163f 	.word	0x0000163f
    1660:	0000163f 	.word	0x0000163f
    1664:	00001669 	.word	0x00001669
			motor_on = false;
    1668:	2300      	movs	r3, #0
    166a:	706b      	strb	r3, [r5, #1]
			break;
    166c:	e7e7      	b.n	163e <motor_state_machine+0xee>
}
    166e:	e8bd 8ff8 	ldmia.w	sp!, {r3, r4, r5, r6, r7, r8, r9, sl, fp, pc}
    1672:	bf00      	nop
    1674:	20000c04 	.word	0x20000c04
    1678:	20000c00 	.word	0x20000c00
    167c:	20000b84 	.word	0x20000b84
    1680:	41008000 	.word	0x41008000
    1684:	20000720 	.word	0x20000720
    1688:	0000152d 	.word	0x0000152d

0000168c <motor_hone>:
void motor_hone(void){
    168c:	b510      	push	{r4, lr}
	motor_state_machine(1, 0x400);	//0x400 steps CW
    168e:	f44f 6180 	mov.w	r1, #1024	; 0x400
    1692:	2001      	movs	r0, #1
    1694:	4c06      	ldr	r4, [pc, #24]	; (16b0 <motor_hone+0x24>)
    1696:	47a0      	blx	r4
	motor_state_machine(2, 0x2500); 	//CCW look for picth and catch
    1698:	f44f 5114 	mov.w	r1, #9472	; 0x2500
    169c:	2002      	movs	r0, #2
    169e:	47a0      	blx	r4
	if(catch){	//pitch and catch was detected
    16a0:	4b04      	ldr	r3, [pc, #16]	; (16b4 <motor_hone+0x28>)
    16a2:	781b      	ldrb	r3, [r3, #0]
    16a4:	b903      	cbnz	r3, 16a8 <motor_hone+0x1c>
    16a6:	bd10      	pop	{r4, pc}
		motor_state_machine(1, 0x96);	//0x96 steps CW to 1st aper
    16a8:	2196      	movs	r1, #150	; 0x96
    16aa:	2001      	movs	r0, #1
    16ac:	47a0      	blx	r4
}
    16ae:	e7fa      	b.n	16a6 <motor_hone+0x1a>
    16b0:	00001551 	.word	0x00001551
    16b4:	20000b84 	.word	0x20000b84

000016b8 <rtd_port_setup>:
	PortGroup *porC = &(por->Group[2]);
	PortGroup *porD = &(por->Group[3]);
	
	//12MHz crystal on board selected mapped to PB22/PB23
	
	porB->PMUX[2].bit.PMUXE = 1;	//PB04 ADC1 AIN[6] temp sensor
    16b8:	4b3e      	ldr	r3, [pc, #248]	; (17b4 <rtd_port_setup+0xfc>)
    16ba:	f893 10b2 	ldrb.w	r1, [r3, #178]	; 0xb2
    16be:	2201      	movs	r2, #1
    16c0:	f362 0103 	bfi	r1, r2, #0, #4
    16c4:	f883 10b2 	strb.w	r1, [r3, #178]	; 0xb2
	porB->PINCFG[4].bit.PMUXEN = 1;
    16c8:	f893 10c4 	ldrb.w	r1, [r3, #196]	; 0xc4
    16cc:	4311      	orrs	r1, r2
    16ce:	f883 10c4 	strb.w	r1, [r3, #196]	; 0xc4
	
	porC->PMUX[0].bit.PMUXE = 1;	//PC00 ADC1 AIN[10] extra
    16d2:	f893 1130 	ldrb.w	r1, [r3, #304]	; 0x130
    16d6:	f362 0103 	bfi	r1, r2, #0, #4
    16da:	f883 1130 	strb.w	r1, [r3, #304]	; 0x130
	porC->PINCFG[0].bit.PMUXEN = 1;
    16de:	f893 1140 	ldrb.w	r1, [r3, #320]	; 0x140
    16e2:	4311      	orrs	r1, r2
    16e4:	f883 1140 	strb.w	r1, [r3, #320]	; 0x140
	
	porC->PMUX[0].bit.PMUXO = 1;	//PC01 ADC1 AIN[11] extra
    16e8:	f893 1130 	ldrb.w	r1, [r3, #304]	; 0x130
    16ec:	f362 1107 	bfi	r1, r2, #4, #4
    16f0:	f883 1130 	strb.w	r1, [r3, #304]	; 0x130
	porC->PINCFG[1].bit.PMUXEN = 1;
    16f4:	f893 1141 	ldrb.w	r1, [r3, #321]	; 0x141
    16f8:	4311      	orrs	r1, r2
    16fa:	f883 1141 	strb.w	r1, [r3, #321]	; 0x141

	porC->PMUX[1].bit.PMUXE = 1;	//PC02 ADC1 AIN[4] RTD0
    16fe:	f893 1131 	ldrb.w	r1, [r3, #305]	; 0x131
    1702:	f362 0103 	bfi	r1, r2, #0, #4
    1706:	f883 1131 	strb.w	r1, [r3, #305]	; 0x131
	porC->PINCFG[2].bit.PMUXEN = 1;
    170a:	f893 1142 	ldrb.w	r1, [r3, #322]	; 0x142
    170e:	4311      	orrs	r1, r2
    1710:	f883 1142 	strb.w	r1, [r3, #322]	; 0x142
	
	porC->PMUX[1].bit.PMUXO = 1;	//PC03 ADC1 AIN[5] RTD1
    1714:	f893 1131 	ldrb.w	r1, [r3, #305]	; 0x131
    1718:	f362 1107 	bfi	r1, r2, #4, #4
    171c:	f883 1131 	strb.w	r1, [r3, #305]	; 0x131
	porC->PINCFG[3].bit.PMUXEN = 1;
    1720:	f893 1143 	ldrb.w	r1, [r3, #323]	; 0x143
    1724:	4311      	orrs	r1, r2
    1726:	f883 1143 	strb.w	r1, [r3, #323]	; 0x143
	
	porA->PMUX[1].bit.PMUXE = 1;	//PA02 ADC0 AIN[0] RTD2
    172a:	f893 1031 	ldrb.w	r1, [r3, #49]	; 0x31
    172e:	f362 0103 	bfi	r1, r2, #0, #4
    1732:	f883 1031 	strb.w	r1, [r3, #49]	; 0x31
	porA->PINCFG[2].bit.PMUXEN = 1;
    1736:	f893 1042 	ldrb.w	r1, [r3, #66]	; 0x42
    173a:	4311      	orrs	r1, r2
    173c:	f883 1042 	strb.w	r1, [r3, #66]	; 0x42
	
	porA->PMUX[1].bit.PMUXO = 1;	//PA03 ADC0 AIN[1] RTD3
    1740:	f893 1031 	ldrb.w	r1, [r3, #49]	; 0x31
    1744:	f362 1107 	bfi	r1, r2, #4, #4
    1748:	f883 1031 	strb.w	r1, [r3, #49]	; 0x31
	porA->PINCFG[3].bit.PMUXEN = 1;
    174c:	f893 1043 	ldrb.w	r1, [r3, #67]	; 0x43
    1750:	4311      	orrs	r1, r2
    1752:	f883 1043 	strb.w	r1, [r3, #67]	; 0x43
	
	porB->PMUX[2].bit.PMUXO = 1;	//PB05 ADC1 AIN[7] RTD4
    1756:	f893 10b2 	ldrb.w	r1, [r3, #178]	; 0xb2
    175a:	f362 1107 	bfi	r1, r2, #4, #4
    175e:	f883 10b2 	strb.w	r1, [r3, #178]	; 0xb2
	porB->PINCFG[5].bit.PMUXEN = 1;
    1762:	f893 10c5 	ldrb.w	r1, [r3, #197]	; 0xc5
    1766:	4311      	orrs	r1, r2
    1768:	f883 10c5 	strb.w	r1, [r3, #197]	; 0xc5
	
	porD->PMUX[0].bit.PMUXE = 1;	//PD00 ADC1 AIN[14] RTD5
    176c:	f893 11b0 	ldrb.w	r1, [r3, #432]	; 0x1b0
    1770:	f362 0103 	bfi	r1, r2, #0, #4
    1774:	f883 11b0 	strb.w	r1, [r3, #432]	; 0x1b0
	porD->PINCFG[0].bit.PMUXEN = 1;
    1778:	f893 11c0 	ldrb.w	r1, [r3, #448]	; 0x1c0
    177c:	4311      	orrs	r1, r2
    177e:	f883 11c0 	strb.w	r1, [r3, #448]	; 0x1c0
	
	porD->PMUX[0].bit.PMUXO = 1;	//PD01 ADC1 AIN[15] RTD6
    1782:	f893 11b0 	ldrb.w	r1, [r3, #432]	; 0x1b0
    1786:	f362 1107 	bfi	r1, r2, #4, #4
    178a:	f883 11b0 	strb.w	r1, [r3, #432]	; 0x1b0
	porD->PINCFG[1].bit.PMUXEN = 1;
    178e:	f893 11c1 	ldrb.w	r1, [r3, #449]	; 0x1c1
    1792:	4311      	orrs	r1, r2
    1794:	f883 11c1 	strb.w	r1, [r3, #449]	; 0x1c1

	porB->PMUX[4].bit.PMUXE = 1;	//PB06 ADC1 AIN[8] RTD7
    1798:	f893 10b4 	ldrb.w	r1, [r3, #180]	; 0xb4
    179c:	f362 0103 	bfi	r1, r2, #0, #4
    17a0:	f883 10b4 	strb.w	r1, [r3, #180]	; 0xb4
	porB->PINCFG[8].bit.PMUXEN = 1;
    17a4:	f893 20c8 	ldrb.w	r2, [r3, #200]	; 0xc8
    17a8:	f042 0201 	orr.w	r2, r2, #1
    17ac:	f883 20c8 	strb.w	r2, [r3, #200]	; 0xc8
    17b0:	4770      	bx	lr
    17b2:	bf00      	nop
    17b4:	41008000 	.word	0x41008000

000017b8 <ADC_1_Setup>:
	
}

/* Setup ADC1 */
void ADC_1_Setup(void){
	ADC1->CTRLA.reg = 0<<1;	//disable so that we can reset
    17b8:	2200      	movs	r2, #0
    17ba:	4b1d      	ldr	r3, [pc, #116]	; (1830 <ADC_1_Setup+0x78>)
    17bc:	801a      	strh	r2, [r3, #0]
	while (ADC1->SYNCBUSY.reg){}	//wait for disable to complete
    17be:	461a      	mov	r2, r3
    17c0:	6b13      	ldr	r3, [r2, #48]	; 0x30
    17c2:	2b00      	cmp	r3, #0
    17c4:	d1fc      	bne.n	17c0 <ADC_1_Setup+0x8>
	ADC1->CTRLA.bit.PRESCALER = 0;	//2^n
    17c6:	4b1a      	ldr	r3, [pc, #104]	; (1830 <ADC_1_Setup+0x78>)
    17c8:	881a      	ldrh	r2, [r3, #0]
    17ca:	f36f 220a 	bfc	r2, #8, #3
    17ce:	801a      	strh	r2, [r3, #0]
	ADC1->CTRLA.bit.ONDEMAND = 1;
    17d0:	881a      	ldrh	r2, [r3, #0]
    17d2:	f042 0280 	orr.w	r2, r2, #128	; 0x80
    17d6:	801a      	strh	r2, [r3, #0]
	
	ADC1->REFCTRL.reg = ADC_REFCTRL_REFSEL_INTVCC1;	//internal reference = VDDann
    17d8:	2203      	movs	r2, #3
    17da:	721a      	strb	r2, [r3, #8]
	while(ADC1->SYNCBUSY.bit.REFCTRL){}
    17dc:	461a      	mov	r2, r3
    17de:	6b13      	ldr	r3, [r2, #48]	; 0x30
    17e0:	f013 0f10 	tst.w	r3, #16
    17e4:	d1fb      	bne.n	17de <ADC_1_Setup+0x26>
	//ADC->CTRLB.reg = ADC_CTRLB_PRESCALER_DIV512 | ADC_CTRLB_RESSEL_8BIT | ADC_CTRLB_FREERUN | 0<<0 | ADC_CTRLB_CORREN;
	ADC1->CTRLB.reg = ADC_CTRLB_RESSEL_8BIT | 0<<1 | 0<<0;	// freerun mode off, right adjust
    17e6:	2218      	movs	r2, #24
    17e8:	4b11      	ldr	r3, [pc, #68]	; (1830 <ADC_1_Setup+0x78>)
    17ea:	80da      	strh	r2, [r3, #6]
	while (ADC1->SYNCBUSY.bit.CTRLB){}	//wait for sync to complete
    17ec:	461a      	mov	r2, r3
    17ee:	6b13      	ldr	r3, [r2, #48]	; 0x30
    17f0:	f013 0f08 	tst.w	r3, #8
    17f4:	d1fb      	bne.n	17ee <ADC_1_Setup+0x36>
	ADC1->INPUTCTRL.reg = ADC_INPUTCTRL_MUXNEG_GND | ADC_INPUTCTRL_MUXPOS_AIN6;	//AIN6=PB04
    17f6:	f641 0206 	movw	r2, #6150	; 0x1806
    17fa:	4b0d      	ldr	r3, [pc, #52]	; (1830 <ADC_1_Setup+0x78>)
    17fc:	809a      	strh	r2, [r3, #4]
	while (ADC1->SYNCBUSY.bit.INPUTCTRL){}	//wait for sync to complete
    17fe:	461a      	mov	r2, r3
    1800:	6b13      	ldr	r3, [r2, #48]	; 0x30
    1802:	f013 0f04 	tst.w	r3, #4
    1806:	d1fb      	bne.n	1800 <ADC_1_Setup+0x48>
	ADC1->SWTRIG.bit.START = 1;	//start conversion
    1808:	4a09      	ldr	r2, [pc, #36]	; (1830 <ADC_1_Setup+0x78>)
    180a:	7d13      	ldrb	r3, [r2, #20]
    180c:	f043 0302 	orr.w	r3, r3, #2
    1810:	7513      	strb	r3, [r2, #20]
	while (ADC1->SYNCBUSY.bit.SWTRIG){}	//wait for sync to complete
    1812:	6b13      	ldr	r3, [r2, #48]	; 0x30
    1814:	f413 6f00 	tst.w	r3, #2048	; 0x800
    1818:	d1fb      	bne.n	1812 <ADC_1_Setup+0x5a>
	//ADC1->INTENSET.reg = ADC_INTENSET_RESRDY;	//setup interrupt when reg is ready to be read
	ADC1->CTRLA.reg |= 1<<1;	//enable ADC
    181a:	4a05      	ldr	r2, [pc, #20]	; (1830 <ADC_1_Setup+0x78>)
    181c:	8813      	ldrh	r3, [r2, #0]
    181e:	b29b      	uxth	r3, r3
    1820:	f043 0302 	orr.w	r3, r3, #2
    1824:	8013      	strh	r3, [r2, #0]
	while (ADC1->SYNCBUSY.reg){}	//wait for enable to complete
    1826:	6b13      	ldr	r3, [r2, #48]	; 0x30
    1828:	2b00      	cmp	r3, #0
    182a:	d1fc      	bne.n	1826 <ADC_1_Setup+0x6e>
	//NVIC->ISER[3] |= 1<<25;	//enable the NVIC handler
	//ADC0->OFFSETCORR.reg = 0b000000110100;	//shift down by 52, 2's comp
	//ADC0->GAINCORR.reg =   0b100010100000;	//when corren is enabled it enables gain comp too, fractional
}
    182c:	4770      	bx	lr
    182e:	bf00      	nop
    1830:	43002000 	.word	0x43002000

00001834 <ADC_0_Setup>:

/* Setup ADC0 */
void ADC_0_Setup(void){
	ADC0->CTRLA.reg = 0<<1;	//disable so that we can reset
    1834:	2200      	movs	r2, #0
    1836:	4b1d      	ldr	r3, [pc, #116]	; (18ac <ADC_0_Setup+0x78>)
    1838:	801a      	strh	r2, [r3, #0]
	while (ADC0->SYNCBUSY.reg){}	//wait for disable to complete
    183a:	461a      	mov	r2, r3
    183c:	6b13      	ldr	r3, [r2, #48]	; 0x30
    183e:	2b00      	cmp	r3, #0
    1840:	d1fc      	bne.n	183c <ADC_0_Setup+0x8>
	ADC0->CTRLA.bit.PRESCALER = 0;	//2^n
    1842:	4b1a      	ldr	r3, [pc, #104]	; (18ac <ADC_0_Setup+0x78>)
    1844:	881a      	ldrh	r2, [r3, #0]
    1846:	f36f 220a 	bfc	r2, #8, #3
    184a:	801a      	strh	r2, [r3, #0]
	ADC0->CTRLA.bit.ONDEMAND = 1;
    184c:	881a      	ldrh	r2, [r3, #0]
    184e:	f042 0280 	orr.w	r2, r2, #128	; 0x80
    1852:	801a      	strh	r2, [r3, #0]
	
	ADC0->REFCTRL.reg = ADC_REFCTRL_REFSEL_INTVCC1;	//internal reference = VDDann
    1854:	2203      	movs	r2, #3
    1856:	721a      	strb	r2, [r3, #8]
	while(ADC0->SYNCBUSY.bit.REFCTRL){}
    1858:	461a      	mov	r2, r3
    185a:	6b13      	ldr	r3, [r2, #48]	; 0x30
    185c:	f013 0f10 	tst.w	r3, #16
    1860:	d1fb      	bne.n	185a <ADC_0_Setup+0x26>
	//ADC->CTRLB.reg = ADC_CTRLB_PRESCALER_DIV512 | ADC_CTRLB_RESSEL_8BIT | ADC_CTRLB_FREERUN | 0<<0 | ADC_CTRLB_CORREN;
	ADC0->CTRLB.reg = ADC_CTRLB_RESSEL_8BIT | 0<<1 | 0<<0;	// freerun mode off, right adjust
    1862:	2218      	movs	r2, #24
    1864:	4b11      	ldr	r3, [pc, #68]	; (18ac <ADC_0_Setup+0x78>)
    1866:	80da      	strh	r2, [r3, #6]
	while (ADC0->SYNCBUSY.bit.CTRLB){}	//wait for sync to complete
    1868:	461a      	mov	r2, r3
    186a:	6b13      	ldr	r3, [r2, #48]	; 0x30
    186c:	f013 0f08 	tst.w	r3, #8
    1870:	d1fb      	bne.n	186a <ADC_0_Setup+0x36>
	ADC0->INPUTCTRL.reg = ADC_INPUTCTRL_MUXNEG_GND | ADC_INPUTCTRL_MUXPOS_AIN6;	//AIN6=PB04
    1872:	f641 0206 	movw	r2, #6150	; 0x1806
    1876:	4b0d      	ldr	r3, [pc, #52]	; (18ac <ADC_0_Setup+0x78>)
    1878:	809a      	strh	r2, [r3, #4]
	while (ADC0->SYNCBUSY.bit.INPUTCTRL){}	//wait for sync to complete
    187a:	461a      	mov	r2, r3
    187c:	6b13      	ldr	r3, [r2, #48]	; 0x30
    187e:	f013 0f04 	tst.w	r3, #4
    1882:	d1fb      	bne.n	187c <ADC_0_Setup+0x48>
	ADC0->SWTRIG.bit.START = 1;	//start conversion
    1884:	4a09      	ldr	r2, [pc, #36]	; (18ac <ADC_0_Setup+0x78>)
    1886:	7d13      	ldrb	r3, [r2, #20]
    1888:	f043 0302 	orr.w	r3, r3, #2
    188c:	7513      	strb	r3, [r2, #20]
	while (ADC0->SYNCBUSY.bit.SWTRIG){}	//wait for sync to complete
    188e:	6b13      	ldr	r3, [r2, #48]	; 0x30
    1890:	f413 6f00 	tst.w	r3, #2048	; 0x800
    1894:	d1fb      	bne.n	188e <ADC_0_Setup+0x5a>
	//ADC0->INTENSET.reg = ADC_INTENSET_RESRDY;	//setup interrupt when reg is ready to be read
	ADC0->CTRLA.reg |= 1<<1;	//enable ADC
    1896:	4a05      	ldr	r2, [pc, #20]	; (18ac <ADC_0_Setup+0x78>)
    1898:	8813      	ldrh	r3, [r2, #0]
    189a:	b29b      	uxth	r3, r3
    189c:	f043 0302 	orr.w	r3, r3, #2
    18a0:	8013      	strh	r3, [r2, #0]
	while (ADC0->SYNCBUSY.reg){}	//wait for enable to complete
    18a2:	6b13      	ldr	r3, [r2, #48]	; 0x30
    18a4:	2b00      	cmp	r3, #0
    18a6:	d1fc      	bne.n	18a2 <ADC_0_Setup+0x6e>
	//NVIC->ISER[3] |= 1<<25;	//enable the NVIC handler
	//ADC0->OFFSETCORR.reg = 0b000000110100;	//shift down by 52, 2's comp
	//ADC0->GAINCORR.reg =   0b100010100000;	//when corren is enabled it enables gain comp too, fractional
}
    18a8:	4770      	bx	lr
    18aa:	bf00      	nop
    18ac:	43001c00 	.word	0x43001c00

000018b0 <rtd_TC_Setup>:

/* Timer for RTD temp (1 sec) */
void rtd_TC_Setup(void){	
	Tc *tc = TC4;
	TcCount16 *tc4 = &tc->COUNT16;
	tc4->CTRLA.reg = 0;	//disable the TC4
    18b0:	2200      	movs	r2, #0
    18b2:	4b15      	ldr	r3, [pc, #84]	; (1908 <rtd_TC_Setup+0x58>)
    18b4:	601a      	str	r2, [r3, #0]
	while(tc4->SYNCBUSY.reg){}	//wait for sync of disable
    18b6:	461a      	mov	r2, r3
    18b8:	6913      	ldr	r3, [r2, #16]
    18ba:	2b00      	cmp	r3, #0
    18bc:	d1fc      	bne.n	18b8 <rtd_TC_Setup+0x8>
	tc4->CTRLA.bit.PRESCALER = 4;	//2^n;
    18be:	4b12      	ldr	r3, [pc, #72]	; (1908 <rtd_TC_Setup+0x58>)
    18c0:	681a      	ldr	r2, [r3, #0]
    18c2:	2104      	movs	r1, #4
    18c4:	f361 220a 	bfi	r2, r1, #8, #3
    18c8:	601a      	str	r2, [r3, #0]
	tc4->CTRLA.bit.MODE = 0;	//16 bit mode
    18ca:	681a      	ldr	r2, [r3, #0]
    18cc:	f36f 0283 	bfc	r2, #2, #2
    18d0:	601a      	str	r2, [r3, #0]
	tc4->CTRLBSET.bit.ONESHOT = 1;	//turn on one shot mode
    18d2:	795a      	ldrb	r2, [r3, #5]
    18d4:	430a      	orrs	r2, r1
    18d6:	715a      	strb	r2, [r3, #5]
	while(tc4->SYNCBUSY.bit.CTRLB){}	//wait for sync to complete
    18d8:	461a      	mov	r2, r3
    18da:	6913      	ldr	r3, [r2, #16]
    18dc:	f013 0f04 	tst.w	r3, #4
    18e0:	d1fb      	bne.n	18da <rtd_TC_Setup+0x2a>
	tc4->INTENSET.bit.OVF = 1;	//enable the overflow interrupt
    18e2:	4b09      	ldr	r3, [pc, #36]	; (1908 <rtd_TC_Setup+0x58>)
    18e4:	7a5a      	ldrb	r2, [r3, #9]
    18e6:	f042 0201 	orr.w	r2, r2, #1
    18ea:	725a      	strb	r2, [r3, #9]
	tc4->CTRLA.reg |= 1<<1;	//enable the TC4
    18ec:	681a      	ldr	r2, [r3, #0]
    18ee:	f042 0202 	orr.w	r2, r2, #2
    18f2:	601a      	str	r2, [r3, #0]
	while(tc4->SYNCBUSY.reg){}	//wait for sync of enable
    18f4:	461a      	mov	r2, r3
    18f6:	6913      	ldr	r3, [r2, #16]
    18f8:	2b00      	cmp	r3, #0
    18fa:	d1fc      	bne.n	18f6 <rtd_TC_Setup+0x46>
	NVIC->ISER[3] |= 1<<15;	//enable the NVIC handler for TC4
    18fc:	4a03      	ldr	r2, [pc, #12]	; (190c <rtd_TC_Setup+0x5c>)
    18fe:	68d3      	ldr	r3, [r2, #12]
    1900:	f443 4300 	orr.w	r3, r3, #32768	; 0x8000
    1904:	60d3      	str	r3, [r2, #12]
    1906:	4770      	bx	lr
    1908:	42001400 	.word	0x42001400
    190c:	e000e100 	.word	0xe000e100

00001910 <check_RTDs>:
	tc4->CTRLBSET.bit.CMD = 1;	//force retrigger
	while(tc4->SYNCBUSY.bit.CTRLB){}	//wait for sync to complete
}

/* Check each RTD and store in array */
void check_RTDs(void){
    1910:	e92d 41f0 	stmdb	sp!, {r4, r5, r6, r7, r8, lr}
    1914:	b082      	sub	sp, #8
	volatile int RTD = 0;
    1916:	2300      	movs	r3, #0
    1918:	9301      	str	r3, [sp, #4]
	
	while(RTD < 8){
    191a:	9b01      	ldr	r3, [sp, #4]
    191c:	2b07      	cmp	r3, #7
    191e:	f300 80d3 	bgt.w	1ac8 <check_RTDs+0x1b8>
		switch(RTD){
			
			case 0:	//rtd 0
			ADC1->INPUTCTRL.reg = ADC_INPUTCTRL_MUXNEG_GND | ADC_INPUTCTRL_MUXPOS_AIN4;	//AIN4=PC02
    1922:	4b6b      	ldr	r3, [pc, #428]	; (1ad0 <check_RTDs+0x1c0>)
    1924:	f641 0c04 	movw	ip, #6148	; 0x1804
			while (ADC1->SYNCBUSY.bit.INPUTCTRL){}	//wait for sync to complete
			ADC1->SWTRIG.reg = 1;	//trigger ADC to start conversion
    1928:	2401      	movs	r4, #1
			while(ADC1->INTFLAG.bit.RESRDY == 0){}
			RTD_array[RTD] = ADC1->RESULT.reg;
    192a:	486a      	ldr	r0, [pc, #424]	; (1ad4 <check_RTDs+0x1c4>)
			break;
			
			case 1:	//rtd1
			ADC1->INPUTCTRL.reg = ADC_INPUTCTRL_MUXNEG_GND | ADC_INPUTCTRL_MUXPOS_AIN5;	//AIN5=PC03
    192c:	f641 0e05 	movw	lr, #6149	; 0x1805
			while(ADC1->INTFLAG.bit.RESRDY == 0){}
			RTD_array[RTD] = ADC1->RESULT.reg;
			break;
			
			case 2:	//rtd2
			ADC0->INPUTCTRL.reg = ADC_INPUTCTRL_MUXNEG_GND | ADC_INPUTCTRL_MUXPOS_AIN0;	//AIN0=PA02
    1930:	4a69      	ldr	r2, [pc, #420]	; (1ad8 <check_RTDs+0x1c8>)
    1932:	f44f 57c0 	mov.w	r7, #6144	; 0x1800
			while(ADC0->INTFLAG.bit.RESRDY == 0){}
			RTD_array[RTD] = ADC0->RESULT.reg;
			break;
			
			case 3:	//rtd3
			ADC0->INPUTCTRL.reg = ADC_INPUTCTRL_MUXNEG_GND | ADC_INPUTCTRL_MUXPOS_AIN1;	//AIN1=PA03
    1936:	f641 0601 	movw	r6, #6145	; 0x1801
			while(ADC0->INTFLAG.bit.RESRDY == 0){}
			RTD_array[RTD] = ADC0->RESULT.reg;
			break;
			
			case 4:	//rtd4
			ADC1->INPUTCTRL.reg = ADC_INPUTCTRL_MUXNEG_GND | ADC_INPUTCTRL_MUXPOS_AIN7;	//AIN7=PB05
    193a:	f641 0507 	movw	r5, #6151	; 0x1807
    193e:	e019      	b.n	1974 <check_RTDs+0x64>
			ADC1->INPUTCTRL.reg = ADC_INPUTCTRL_MUXNEG_GND | ADC_INPUTCTRL_MUXPOS_AIN4;	//AIN4=PC02
    1940:	f8a3 c004 	strh.w	ip, [r3, #4]
			while (ADC1->SYNCBUSY.bit.INPUTCTRL){}	//wait for sync to complete
    1944:	6b19      	ldr	r1, [r3, #48]	; 0x30
    1946:	f011 0f04 	tst.w	r1, #4
    194a:	d1fb      	bne.n	1944 <check_RTDs+0x34>
			ADC1->SWTRIG.reg = 1;	//trigger ADC to start conversion
    194c:	751c      	strb	r4, [r3, #20]
			while(ADC1->INTFLAG.bit.RESRDY == 0){}
    194e:	f893 102e 	ldrb.w	r1, [r3, #46]	; 0x2e
    1952:	f011 0f01 	tst.w	r1, #1
    1956:	d0fa      	beq.n	194e <check_RTDs+0x3e>
			RTD_array[RTD] = ADC1->RESULT.reg;
    1958:	f8dd 8004 	ldr.w	r8, [sp, #4]
    195c:	f8b3 1040 	ldrh.w	r1, [r3, #64]	; 0x40
    1960:	b289      	uxth	r1, r1
    1962:	f840 1028 	str.w	r1, [r0, r8, lsl #2]
			
			default:
			RTD_array[RTD] = 99;
			break;
		}
		RTD++;
    1966:	9901      	ldr	r1, [sp, #4]
    1968:	3101      	adds	r1, #1
    196a:	9101      	str	r1, [sp, #4]
	while(RTD < 8){
    196c:	9901      	ldr	r1, [sp, #4]
    196e:	2907      	cmp	r1, #7
    1970:	f300 80aa 	bgt.w	1ac8 <check_RTDs+0x1b8>
		switch(RTD){
    1974:	9901      	ldr	r1, [sp, #4]
    1976:	2907      	cmp	r1, #7
    1978:	f200 80a0 	bhi.w	1abc <check_RTDs+0x1ac>
    197c:	f20f 0804 	addw	r8, pc, #4
    1980:	f858 f021 	ldr.w	pc, [r8, r1, lsl #2]
    1984:	00001941 	.word	0x00001941
    1988:	000019a5 	.word	0x000019a5
    198c:	000019cd 	.word	0x000019cd
    1990:	000019f3 	.word	0x000019f3
    1994:	00001a19 	.word	0x00001a19
    1998:	00001a3f 	.word	0x00001a3f
    199c:	00001a69 	.word	0x00001a69
    19a0:	00001a93 	.word	0x00001a93
			ADC1->INPUTCTRL.reg = ADC_INPUTCTRL_MUXNEG_GND | ADC_INPUTCTRL_MUXPOS_AIN5;	//AIN5=PC03
    19a4:	f8a3 e004 	strh.w	lr, [r3, #4]
			while (ADC1->SYNCBUSY.bit.INPUTCTRL){}	//wait for sync to complete
    19a8:	6b19      	ldr	r1, [r3, #48]	; 0x30
    19aa:	f011 0f04 	tst.w	r1, #4
    19ae:	d1fb      	bne.n	19a8 <check_RTDs+0x98>
			ADC1->SWTRIG.reg = 1;	//trigger ADC to start conversion
    19b0:	751c      	strb	r4, [r3, #20]
			while(ADC1->INTFLAG.bit.RESRDY == 0){}
    19b2:	f893 102e 	ldrb.w	r1, [r3, #46]	; 0x2e
    19b6:	f011 0f01 	tst.w	r1, #1
    19ba:	d0fa      	beq.n	19b2 <check_RTDs+0xa2>
			RTD_array[RTD] = ADC1->RESULT.reg;
    19bc:	f8dd 8004 	ldr.w	r8, [sp, #4]
    19c0:	f8b3 1040 	ldrh.w	r1, [r3, #64]	; 0x40
    19c4:	b289      	uxth	r1, r1
    19c6:	f840 1028 	str.w	r1, [r0, r8, lsl #2]
			break;
    19ca:	e7cc      	b.n	1966 <check_RTDs+0x56>
			ADC0->INPUTCTRL.reg = ADC_INPUTCTRL_MUXNEG_GND | ADC_INPUTCTRL_MUXPOS_AIN0;	//AIN0=PA02
    19cc:	8097      	strh	r7, [r2, #4]
			while (ADC0->SYNCBUSY.bit.INPUTCTRL){}	//wait for sync to complete
    19ce:	6b11      	ldr	r1, [r2, #48]	; 0x30
    19d0:	f011 0f04 	tst.w	r1, #4
    19d4:	d1fb      	bne.n	19ce <check_RTDs+0xbe>
			ADC0->SWTRIG.reg = 1;	//trigger ADC to start conversion
    19d6:	7514      	strb	r4, [r2, #20]
			while(ADC0->INTFLAG.bit.RESRDY == 0){}
    19d8:	f892 102e 	ldrb.w	r1, [r2, #46]	; 0x2e
    19dc:	f011 0f01 	tst.w	r1, #1
    19e0:	d0fa      	beq.n	19d8 <check_RTDs+0xc8>
			RTD_array[RTD] = ADC0->RESULT.reg;
    19e2:	f8dd 8004 	ldr.w	r8, [sp, #4]
    19e6:	f8b2 1040 	ldrh.w	r1, [r2, #64]	; 0x40
    19ea:	b289      	uxth	r1, r1
    19ec:	f840 1028 	str.w	r1, [r0, r8, lsl #2]
			break;
    19f0:	e7b9      	b.n	1966 <check_RTDs+0x56>
			ADC0->INPUTCTRL.reg = ADC_INPUTCTRL_MUXNEG_GND | ADC_INPUTCTRL_MUXPOS_AIN1;	//AIN1=PA03
    19f2:	8096      	strh	r6, [r2, #4]
			while (ADC0->SYNCBUSY.bit.INPUTCTRL){}	//wait for sync to complete
    19f4:	6b11      	ldr	r1, [r2, #48]	; 0x30
    19f6:	f011 0f04 	tst.w	r1, #4
    19fa:	d1fb      	bne.n	19f4 <check_RTDs+0xe4>
			ADC0->SWTRIG.reg = 1;	//trigger ADC to start conversion
    19fc:	7514      	strb	r4, [r2, #20]
			while(ADC0->INTFLAG.bit.RESRDY == 0){}
    19fe:	f892 102e 	ldrb.w	r1, [r2, #46]	; 0x2e
    1a02:	f011 0f01 	tst.w	r1, #1
    1a06:	d0fa      	beq.n	19fe <check_RTDs+0xee>
			RTD_array[RTD] = ADC0->RESULT.reg;
    1a08:	f8dd 8004 	ldr.w	r8, [sp, #4]
    1a0c:	f8b2 1040 	ldrh.w	r1, [r2, #64]	; 0x40
    1a10:	b289      	uxth	r1, r1
    1a12:	f840 1028 	str.w	r1, [r0, r8, lsl #2]
			break;
    1a16:	e7a6      	b.n	1966 <check_RTDs+0x56>
			ADC1->INPUTCTRL.reg = ADC_INPUTCTRL_MUXNEG_GND | ADC_INPUTCTRL_MUXPOS_AIN7;	//AIN7=PB05
    1a18:	809d      	strh	r5, [r3, #4]
			while (ADC1->SYNCBUSY.bit.INPUTCTRL){}	//wait for sync to complete
    1a1a:	6b19      	ldr	r1, [r3, #48]	; 0x30
    1a1c:	f011 0f04 	tst.w	r1, #4
    1a20:	d1fb      	bne.n	1a1a <check_RTDs+0x10a>
			ADC1->SWTRIG.reg = 1;	//trigger ADC to start conversion
    1a22:	751c      	strb	r4, [r3, #20]
			while(ADC1->INTFLAG.bit.RESRDY == 0){}
    1a24:	f893 102e 	ldrb.w	r1, [r3, #46]	; 0x2e
    1a28:	f011 0f01 	tst.w	r1, #1
    1a2c:	d0fa      	beq.n	1a24 <check_RTDs+0x114>
			RTD_array[RTD] = ADC1->RESULT.reg;
    1a2e:	f8dd 8004 	ldr.w	r8, [sp, #4]
    1a32:	f8b3 1040 	ldrh.w	r1, [r3, #64]	; 0x40
    1a36:	b289      	uxth	r1, r1
    1a38:	f840 1028 	str.w	r1, [r0, r8, lsl #2]
			break;
    1a3c:	e793      	b.n	1966 <check_RTDs+0x56>
			ADC1->INPUTCTRL.reg = ADC_INPUTCTRL_MUXNEG_GND | ADC_INPUTCTRL_MUXPOS_AIN14;	//AIN14=PD00
    1a3e:	f641 010e 	movw	r1, #6158	; 0x180e
    1a42:	8099      	strh	r1, [r3, #4]
			while (ADC1->SYNCBUSY.bit.INPUTCTRL){}	//wait for sync to complete
    1a44:	6b19      	ldr	r1, [r3, #48]	; 0x30
    1a46:	f011 0f04 	tst.w	r1, #4
    1a4a:	d1fb      	bne.n	1a44 <check_RTDs+0x134>
			ADC1->SWTRIG.reg = 1;	//trigger ADC to start conversion
    1a4c:	751c      	strb	r4, [r3, #20]
			while(ADC1->INTFLAG.bit.RESRDY == 0){}
    1a4e:	f893 102e 	ldrb.w	r1, [r3, #46]	; 0x2e
    1a52:	f011 0f01 	tst.w	r1, #1
    1a56:	d0fa      	beq.n	1a4e <check_RTDs+0x13e>
			RTD_array[RTD] = ADC1->RESULT.reg;
    1a58:	f8dd 8004 	ldr.w	r8, [sp, #4]
    1a5c:	f8b3 1040 	ldrh.w	r1, [r3, #64]	; 0x40
    1a60:	b289      	uxth	r1, r1
    1a62:	f840 1028 	str.w	r1, [r0, r8, lsl #2]
			break;
    1a66:	e77e      	b.n	1966 <check_RTDs+0x56>
			ADC1->INPUTCTRL.reg = ADC_INPUTCTRL_MUXNEG_GND | ADC_INPUTCTRL_MUXPOS_AIN15;	//AIN15=PD01
    1a68:	f641 010f 	movw	r1, #6159	; 0x180f
    1a6c:	8099      	strh	r1, [r3, #4]
			while (ADC1->SYNCBUSY.bit.INPUTCTRL){}	//wait for sync to complete
    1a6e:	6b19      	ldr	r1, [r3, #48]	; 0x30
    1a70:	f011 0f04 	tst.w	r1, #4
    1a74:	d1fb      	bne.n	1a6e <check_RTDs+0x15e>
			ADC1->SWTRIG.reg = 1;	//trigger ADC to start conversion
    1a76:	751c      	strb	r4, [r3, #20]
			while(ADC1->INTFLAG.bit.RESRDY == 0){}
    1a78:	f893 102e 	ldrb.w	r1, [r3, #46]	; 0x2e
    1a7c:	f011 0f01 	tst.w	r1, #1
    1a80:	d0fa      	beq.n	1a78 <check_RTDs+0x168>
			RTD_array[RTD] = ADC1->RESULT.reg;
    1a82:	f8dd 8004 	ldr.w	r8, [sp, #4]
    1a86:	f8b3 1040 	ldrh.w	r1, [r3, #64]	; 0x40
    1a8a:	b289      	uxth	r1, r1
    1a8c:	f840 1028 	str.w	r1, [r0, r8, lsl #2]
			break;
    1a90:	e769      	b.n	1966 <check_RTDs+0x56>
			ADC1->INPUTCTRL.reg = ADC_INPUTCTRL_MUXNEG_GND | ADC_INPUTCTRL_MUXPOS_AIN8;	//AIN8=PB06
    1a92:	f641 0108 	movw	r1, #6152	; 0x1808
    1a96:	8099      	strh	r1, [r3, #4]
			while (ADC1->SYNCBUSY.bit.INPUTCTRL){}	//wait for sync to complete
    1a98:	6b19      	ldr	r1, [r3, #48]	; 0x30
    1a9a:	f011 0f04 	tst.w	r1, #4
    1a9e:	d1fb      	bne.n	1a98 <check_RTDs+0x188>
			ADC1->SWTRIG.reg = 1;	//trigger ADC to start conversion
    1aa0:	751c      	strb	r4, [r3, #20]
			while(ADC1->INTFLAG.bit.RESRDY == 0){}
    1aa2:	f893 102e 	ldrb.w	r1, [r3, #46]	; 0x2e
    1aa6:	f011 0f01 	tst.w	r1, #1
    1aaa:	d0fa      	beq.n	1aa2 <check_RTDs+0x192>
			RTD_array[RTD] = ADC1->RESULT.reg;
    1aac:	f8dd 8004 	ldr.w	r8, [sp, #4]
    1ab0:	f8b3 1040 	ldrh.w	r1, [r3, #64]	; 0x40
    1ab4:	b289      	uxth	r1, r1
    1ab6:	f840 1028 	str.w	r1, [r0, r8, lsl #2]
			break;
    1aba:	e754      	b.n	1966 <check_RTDs+0x56>
			RTD_array[RTD] = 99;
    1abc:	9901      	ldr	r1, [sp, #4]
    1abe:	f04f 0863 	mov.w	r8, #99	; 0x63
    1ac2:	f840 8021 	str.w	r8, [r0, r1, lsl #2]
			break;
    1ac6:	e74e      	b.n	1966 <check_RTDs+0x56>
	}
}
    1ac8:	b002      	add	sp, #8
    1aca:	e8bd 81f0 	ldmia.w	sp!, {r4, r5, r6, r7, r8, pc}
    1ace:	bf00      	nop
    1ad0:	43002000 	.word	0x43002000
    1ad4:	20000b8c 	.word	0x20000b8c
    1ad8:	43001c00 	.word	0x43001c00

00001adc <TC4_Handler>:
void TC4_Handler(void){
    1adc:	b510      	push	{r4, lr}
	tc4->INTFLAG.bit.OVF = 1;	//clear the int flag
    1ade:	4c09      	ldr	r4, [pc, #36]	; (1b04 <TC4_Handler+0x28>)
    1ae0:	7aa3      	ldrb	r3, [r4, #10]
    1ae2:	f043 0301 	orr.w	r3, r3, #1
    1ae6:	72a3      	strb	r3, [r4, #10]
	check_RTDs();	
    1ae8:	4b07      	ldr	r3, [pc, #28]	; (1b08 <TC4_Handler+0x2c>)
    1aea:	4798      	blx	r3
	tc4->CTRLBSET.bit.CMD = 1;	//force retrigger
    1aec:	7963      	ldrb	r3, [r4, #5]
    1aee:	2201      	movs	r2, #1
    1af0:	f362 1347 	bfi	r3, r2, #5, #3
    1af4:	7163      	strb	r3, [r4, #5]
	while(tc4->SYNCBUSY.bit.CTRLB){}	//wait for sync to complete
    1af6:	4622      	mov	r2, r4
    1af8:	6913      	ldr	r3, [r2, #16]
    1afa:	f013 0f04 	tst.w	r3, #4
    1afe:	d1fb      	bne.n	1af8 <TC4_Handler+0x1c>
}
    1b00:	bd10      	pop	{r4, pc}
    1b02:	bf00      	nop
    1b04:	42001400 	.word	0x42001400
    1b08:	00001911 	.word	0x00001911

00001b0c <display_RTDs>:

void display_RTDs(void){
    1b0c:	b570      	push	{r4, r5, r6, lr}
    1b0e:	2408      	movs	r4, #8
	int i = 0;
	while(i < 8){
		convert(RTD_array_ptr++);
    1b10:	4d04      	ldr	r5, [pc, #16]	; (1b24 <display_RTDs+0x18>)
    1b12:	4e05      	ldr	r6, [pc, #20]	; (1b28 <display_RTDs+0x1c>)
    1b14:	6828      	ldr	r0, [r5, #0]
    1b16:	1d03      	adds	r3, r0, #4
    1b18:	602b      	str	r3, [r5, #0]
    1b1a:	47b0      	blx	r6
	while(i < 8){
    1b1c:	3c01      	subs	r4, #1
    1b1e:	d1f9      	bne.n	1b14 <display_RTDs+0x8>
		i++;
	}
}
    1b20:	bd70      	pop	{r4, r5, r6, pc}
    1b22:	bf00      	nop
    1b24:	20000c08 	.word	0x20000c08
    1b28:	00001085 	.word	0x00001085

00001b2c <__aeabi_drsub>:
    1b2c:	f081 4100 	eor.w	r1, r1, #2147483648	; 0x80000000
    1b30:	e002      	b.n	1b38 <__adddf3>
    1b32:	bf00      	nop

00001b34 <__aeabi_dsub>:
    1b34:	f083 4300 	eor.w	r3, r3, #2147483648	; 0x80000000

00001b38 <__adddf3>:
    1b38:	b530      	push	{r4, r5, lr}
    1b3a:	ea4f 0441 	mov.w	r4, r1, lsl #1
    1b3e:	ea4f 0543 	mov.w	r5, r3, lsl #1
    1b42:	ea94 0f05 	teq	r4, r5
    1b46:	bf08      	it	eq
    1b48:	ea90 0f02 	teqeq	r0, r2
    1b4c:	bf1f      	itttt	ne
    1b4e:	ea54 0c00 	orrsne.w	ip, r4, r0
    1b52:	ea55 0c02 	orrsne.w	ip, r5, r2
    1b56:	ea7f 5c64 	mvnsne.w	ip, r4, asr #21
    1b5a:	ea7f 5c65 	mvnsne.w	ip, r5, asr #21
    1b5e:	f000 80e2 	beq.w	1d26 <__adddf3+0x1ee>
    1b62:	ea4f 5454 	mov.w	r4, r4, lsr #21
    1b66:	ebd4 5555 	rsbs	r5, r4, r5, lsr #21
    1b6a:	bfb8      	it	lt
    1b6c:	426d      	neglt	r5, r5
    1b6e:	dd0c      	ble.n	1b8a <__adddf3+0x52>
    1b70:	442c      	add	r4, r5
    1b72:	ea80 0202 	eor.w	r2, r0, r2
    1b76:	ea81 0303 	eor.w	r3, r1, r3
    1b7a:	ea82 0000 	eor.w	r0, r2, r0
    1b7e:	ea83 0101 	eor.w	r1, r3, r1
    1b82:	ea80 0202 	eor.w	r2, r0, r2
    1b86:	ea81 0303 	eor.w	r3, r1, r3
    1b8a:	2d36      	cmp	r5, #54	; 0x36
    1b8c:	bf88      	it	hi
    1b8e:	bd30      	pophi	{r4, r5, pc}
    1b90:	f011 4f00 	tst.w	r1, #2147483648	; 0x80000000
    1b94:	ea4f 3101 	mov.w	r1, r1, lsl #12
    1b98:	f44f 1c80 	mov.w	ip, #1048576	; 0x100000
    1b9c:	ea4c 3111 	orr.w	r1, ip, r1, lsr #12
    1ba0:	d002      	beq.n	1ba8 <__adddf3+0x70>
    1ba2:	4240      	negs	r0, r0
    1ba4:	eb61 0141 	sbc.w	r1, r1, r1, lsl #1
    1ba8:	f013 4f00 	tst.w	r3, #2147483648	; 0x80000000
    1bac:	ea4f 3303 	mov.w	r3, r3, lsl #12
    1bb0:	ea4c 3313 	orr.w	r3, ip, r3, lsr #12
    1bb4:	d002      	beq.n	1bbc <__adddf3+0x84>
    1bb6:	4252      	negs	r2, r2
    1bb8:	eb63 0343 	sbc.w	r3, r3, r3, lsl #1
    1bbc:	ea94 0f05 	teq	r4, r5
    1bc0:	f000 80a7 	beq.w	1d12 <__adddf3+0x1da>
    1bc4:	f1a4 0401 	sub.w	r4, r4, #1
    1bc8:	f1d5 0e20 	rsbs	lr, r5, #32
    1bcc:	db0d      	blt.n	1bea <__adddf3+0xb2>
    1bce:	fa02 fc0e 	lsl.w	ip, r2, lr
    1bd2:	fa22 f205 	lsr.w	r2, r2, r5
    1bd6:	1880      	adds	r0, r0, r2
    1bd8:	f141 0100 	adc.w	r1, r1, #0
    1bdc:	fa03 f20e 	lsl.w	r2, r3, lr
    1be0:	1880      	adds	r0, r0, r2
    1be2:	fa43 f305 	asr.w	r3, r3, r5
    1be6:	4159      	adcs	r1, r3
    1be8:	e00e      	b.n	1c08 <__adddf3+0xd0>
    1bea:	f1a5 0520 	sub.w	r5, r5, #32
    1bee:	f10e 0e20 	add.w	lr, lr, #32
    1bf2:	2a01      	cmp	r2, #1
    1bf4:	fa03 fc0e 	lsl.w	ip, r3, lr
    1bf8:	bf28      	it	cs
    1bfa:	f04c 0c02 	orrcs.w	ip, ip, #2
    1bfe:	fa43 f305 	asr.w	r3, r3, r5
    1c02:	18c0      	adds	r0, r0, r3
    1c04:	eb51 71e3 	adcs.w	r1, r1, r3, asr #31
    1c08:	f001 4500 	and.w	r5, r1, #2147483648	; 0x80000000
    1c0c:	d507      	bpl.n	1c1e <__adddf3+0xe6>
    1c0e:	f04f 0e00 	mov.w	lr, #0
    1c12:	f1dc 0c00 	rsbs	ip, ip, #0
    1c16:	eb7e 0000 	sbcs.w	r0, lr, r0
    1c1a:	eb6e 0101 	sbc.w	r1, lr, r1
    1c1e:	f5b1 1f80 	cmp.w	r1, #1048576	; 0x100000
    1c22:	d31b      	bcc.n	1c5c <__adddf3+0x124>
    1c24:	f5b1 1f00 	cmp.w	r1, #2097152	; 0x200000
    1c28:	d30c      	bcc.n	1c44 <__adddf3+0x10c>
    1c2a:	0849      	lsrs	r1, r1, #1
    1c2c:	ea5f 0030 	movs.w	r0, r0, rrx
    1c30:	ea4f 0c3c 	mov.w	ip, ip, rrx
    1c34:	f104 0401 	add.w	r4, r4, #1
    1c38:	ea4f 5244 	mov.w	r2, r4, lsl #21
    1c3c:	f512 0f80 	cmn.w	r2, #4194304	; 0x400000
    1c40:	f080 809a 	bcs.w	1d78 <__adddf3+0x240>
    1c44:	f1bc 4f00 	cmp.w	ip, #2147483648	; 0x80000000
    1c48:	bf08      	it	eq
    1c4a:	ea5f 0c50 	movseq.w	ip, r0, lsr #1
    1c4e:	f150 0000 	adcs.w	r0, r0, #0
    1c52:	eb41 5104 	adc.w	r1, r1, r4, lsl #20
    1c56:	ea41 0105 	orr.w	r1, r1, r5
    1c5a:	bd30      	pop	{r4, r5, pc}
    1c5c:	ea5f 0c4c 	movs.w	ip, ip, lsl #1
    1c60:	4140      	adcs	r0, r0
    1c62:	eb41 0101 	adc.w	r1, r1, r1
    1c66:	f411 1f80 	tst.w	r1, #1048576	; 0x100000
    1c6a:	f1a4 0401 	sub.w	r4, r4, #1
    1c6e:	d1e9      	bne.n	1c44 <__adddf3+0x10c>
    1c70:	f091 0f00 	teq	r1, #0
    1c74:	bf04      	itt	eq
    1c76:	4601      	moveq	r1, r0
    1c78:	2000      	moveq	r0, #0
    1c7a:	fab1 f381 	clz	r3, r1
    1c7e:	bf08      	it	eq
    1c80:	3320      	addeq	r3, #32
    1c82:	f1a3 030b 	sub.w	r3, r3, #11
    1c86:	f1b3 0220 	subs.w	r2, r3, #32
    1c8a:	da0c      	bge.n	1ca6 <__adddf3+0x16e>
    1c8c:	320c      	adds	r2, #12
    1c8e:	dd08      	ble.n	1ca2 <__adddf3+0x16a>
    1c90:	f102 0c14 	add.w	ip, r2, #20
    1c94:	f1c2 020c 	rsb	r2, r2, #12
    1c98:	fa01 f00c 	lsl.w	r0, r1, ip
    1c9c:	fa21 f102 	lsr.w	r1, r1, r2
    1ca0:	e00c      	b.n	1cbc <__adddf3+0x184>
    1ca2:	f102 0214 	add.w	r2, r2, #20
    1ca6:	bfd8      	it	le
    1ca8:	f1c2 0c20 	rsble	ip, r2, #32
    1cac:	fa01 f102 	lsl.w	r1, r1, r2
    1cb0:	fa20 fc0c 	lsr.w	ip, r0, ip
    1cb4:	bfdc      	itt	le
    1cb6:	ea41 010c 	orrle.w	r1, r1, ip
    1cba:	4090      	lslle	r0, r2
    1cbc:	1ae4      	subs	r4, r4, r3
    1cbe:	bfa2      	ittt	ge
    1cc0:	eb01 5104 	addge.w	r1, r1, r4, lsl #20
    1cc4:	4329      	orrge	r1, r5
    1cc6:	bd30      	popge	{r4, r5, pc}
    1cc8:	ea6f 0404 	mvn.w	r4, r4
    1ccc:	3c1f      	subs	r4, #31
    1cce:	da1c      	bge.n	1d0a <__adddf3+0x1d2>
    1cd0:	340c      	adds	r4, #12
    1cd2:	dc0e      	bgt.n	1cf2 <__adddf3+0x1ba>
    1cd4:	f104 0414 	add.w	r4, r4, #20
    1cd8:	f1c4 0220 	rsb	r2, r4, #32
    1cdc:	fa20 f004 	lsr.w	r0, r0, r4
    1ce0:	fa01 f302 	lsl.w	r3, r1, r2
    1ce4:	ea40 0003 	orr.w	r0, r0, r3
    1ce8:	fa21 f304 	lsr.w	r3, r1, r4
    1cec:	ea45 0103 	orr.w	r1, r5, r3
    1cf0:	bd30      	pop	{r4, r5, pc}
    1cf2:	f1c4 040c 	rsb	r4, r4, #12
    1cf6:	f1c4 0220 	rsb	r2, r4, #32
    1cfa:	fa20 f002 	lsr.w	r0, r0, r2
    1cfe:	fa01 f304 	lsl.w	r3, r1, r4
    1d02:	ea40 0003 	orr.w	r0, r0, r3
    1d06:	4629      	mov	r1, r5
    1d08:	bd30      	pop	{r4, r5, pc}
    1d0a:	fa21 f004 	lsr.w	r0, r1, r4
    1d0e:	4629      	mov	r1, r5
    1d10:	bd30      	pop	{r4, r5, pc}
    1d12:	f094 0f00 	teq	r4, #0
    1d16:	f483 1380 	eor.w	r3, r3, #1048576	; 0x100000
    1d1a:	bf06      	itte	eq
    1d1c:	f481 1180 	eoreq.w	r1, r1, #1048576	; 0x100000
    1d20:	3401      	addeq	r4, #1
    1d22:	3d01      	subne	r5, #1
    1d24:	e74e      	b.n	1bc4 <__adddf3+0x8c>
    1d26:	ea7f 5c64 	mvns.w	ip, r4, asr #21
    1d2a:	bf18      	it	ne
    1d2c:	ea7f 5c65 	mvnsne.w	ip, r5, asr #21
    1d30:	d029      	beq.n	1d86 <__adddf3+0x24e>
    1d32:	ea94 0f05 	teq	r4, r5
    1d36:	bf08      	it	eq
    1d38:	ea90 0f02 	teqeq	r0, r2
    1d3c:	d005      	beq.n	1d4a <__adddf3+0x212>
    1d3e:	ea54 0c00 	orrs.w	ip, r4, r0
    1d42:	bf04      	itt	eq
    1d44:	4619      	moveq	r1, r3
    1d46:	4610      	moveq	r0, r2
    1d48:	bd30      	pop	{r4, r5, pc}
    1d4a:	ea91 0f03 	teq	r1, r3
    1d4e:	bf1e      	ittt	ne
    1d50:	2100      	movne	r1, #0
    1d52:	2000      	movne	r0, #0
    1d54:	bd30      	popne	{r4, r5, pc}
    1d56:	ea5f 5c54 	movs.w	ip, r4, lsr #21
    1d5a:	d105      	bne.n	1d68 <__adddf3+0x230>
    1d5c:	0040      	lsls	r0, r0, #1
    1d5e:	4149      	adcs	r1, r1
    1d60:	bf28      	it	cs
    1d62:	f041 4100 	orrcs.w	r1, r1, #2147483648	; 0x80000000
    1d66:	bd30      	pop	{r4, r5, pc}
    1d68:	f514 0480 	adds.w	r4, r4, #4194304	; 0x400000
    1d6c:	bf3c      	itt	cc
    1d6e:	f501 1180 	addcc.w	r1, r1, #1048576	; 0x100000
    1d72:	bd30      	popcc	{r4, r5, pc}
    1d74:	f001 4500 	and.w	r5, r1, #2147483648	; 0x80000000
    1d78:	f045 41fe 	orr.w	r1, r5, #2130706432	; 0x7f000000
    1d7c:	f441 0170 	orr.w	r1, r1, #15728640	; 0xf00000
    1d80:	f04f 0000 	mov.w	r0, #0
    1d84:	bd30      	pop	{r4, r5, pc}
    1d86:	ea7f 5c64 	mvns.w	ip, r4, asr #21
    1d8a:	bf1a      	itte	ne
    1d8c:	4619      	movne	r1, r3
    1d8e:	4610      	movne	r0, r2
    1d90:	ea7f 5c65 	mvnseq.w	ip, r5, asr #21
    1d94:	bf1c      	itt	ne
    1d96:	460b      	movne	r3, r1
    1d98:	4602      	movne	r2, r0
    1d9a:	ea50 3401 	orrs.w	r4, r0, r1, lsl #12
    1d9e:	bf06      	itte	eq
    1da0:	ea52 3503 	orrseq.w	r5, r2, r3, lsl #12
    1da4:	ea91 0f03 	teqeq	r1, r3
    1da8:	f441 2100 	orrne.w	r1, r1, #524288	; 0x80000
    1dac:	bd30      	pop	{r4, r5, pc}
    1dae:	bf00      	nop

00001db0 <__aeabi_ui2d>:
    1db0:	f090 0f00 	teq	r0, #0
    1db4:	bf04      	itt	eq
    1db6:	2100      	moveq	r1, #0
    1db8:	4770      	bxeq	lr
    1dba:	b530      	push	{r4, r5, lr}
    1dbc:	f44f 6480 	mov.w	r4, #1024	; 0x400
    1dc0:	f104 0432 	add.w	r4, r4, #50	; 0x32
    1dc4:	f04f 0500 	mov.w	r5, #0
    1dc8:	f04f 0100 	mov.w	r1, #0
    1dcc:	e750      	b.n	1c70 <__adddf3+0x138>
    1dce:	bf00      	nop

00001dd0 <__aeabi_i2d>:
    1dd0:	f090 0f00 	teq	r0, #0
    1dd4:	bf04      	itt	eq
    1dd6:	2100      	moveq	r1, #0
    1dd8:	4770      	bxeq	lr
    1dda:	b530      	push	{r4, r5, lr}
    1ddc:	f44f 6480 	mov.w	r4, #1024	; 0x400
    1de0:	f104 0432 	add.w	r4, r4, #50	; 0x32
    1de4:	f010 4500 	ands.w	r5, r0, #2147483648	; 0x80000000
    1de8:	bf48      	it	mi
    1dea:	4240      	negmi	r0, r0
    1dec:	f04f 0100 	mov.w	r1, #0
    1df0:	e73e      	b.n	1c70 <__adddf3+0x138>
    1df2:	bf00      	nop

00001df4 <__aeabi_f2d>:
    1df4:	0042      	lsls	r2, r0, #1
    1df6:	ea4f 01e2 	mov.w	r1, r2, asr #3
    1dfa:	ea4f 0131 	mov.w	r1, r1, rrx
    1dfe:	ea4f 7002 	mov.w	r0, r2, lsl #28
    1e02:	bf1f      	itttt	ne
    1e04:	f012 437f 	andsne.w	r3, r2, #4278190080	; 0xff000000
    1e08:	f093 4f7f 	teqne	r3, #4278190080	; 0xff000000
    1e0c:	f081 5160 	eorne.w	r1, r1, #939524096	; 0x38000000
    1e10:	4770      	bxne	lr
    1e12:	f092 0f00 	teq	r2, #0
    1e16:	bf14      	ite	ne
    1e18:	f093 4f7f 	teqne	r3, #4278190080	; 0xff000000
    1e1c:	4770      	bxeq	lr
    1e1e:	b530      	push	{r4, r5, lr}
    1e20:	f44f 7460 	mov.w	r4, #896	; 0x380
    1e24:	f001 4500 	and.w	r5, r1, #2147483648	; 0x80000000
    1e28:	f021 4100 	bic.w	r1, r1, #2147483648	; 0x80000000
    1e2c:	e720      	b.n	1c70 <__adddf3+0x138>
    1e2e:	bf00      	nop

00001e30 <__aeabi_ul2d>:
    1e30:	ea50 0201 	orrs.w	r2, r0, r1
    1e34:	bf08      	it	eq
    1e36:	4770      	bxeq	lr
    1e38:	b530      	push	{r4, r5, lr}
    1e3a:	f04f 0500 	mov.w	r5, #0
    1e3e:	e00a      	b.n	1e56 <__aeabi_l2d+0x16>

00001e40 <__aeabi_l2d>:
    1e40:	ea50 0201 	orrs.w	r2, r0, r1
    1e44:	bf08      	it	eq
    1e46:	4770      	bxeq	lr
    1e48:	b530      	push	{r4, r5, lr}
    1e4a:	f011 4500 	ands.w	r5, r1, #2147483648	; 0x80000000
    1e4e:	d502      	bpl.n	1e56 <__aeabi_l2d+0x16>
    1e50:	4240      	negs	r0, r0
    1e52:	eb61 0141 	sbc.w	r1, r1, r1, lsl #1
    1e56:	f44f 6480 	mov.w	r4, #1024	; 0x400
    1e5a:	f104 0432 	add.w	r4, r4, #50	; 0x32
    1e5e:	ea5f 5c91 	movs.w	ip, r1, lsr #22
    1e62:	f43f aedc 	beq.w	1c1e <__adddf3+0xe6>
    1e66:	f04f 0203 	mov.w	r2, #3
    1e6a:	ea5f 0cdc 	movs.w	ip, ip, lsr #3
    1e6e:	bf18      	it	ne
    1e70:	3203      	addne	r2, #3
    1e72:	ea5f 0cdc 	movs.w	ip, ip, lsr #3
    1e76:	bf18      	it	ne
    1e78:	3203      	addne	r2, #3
    1e7a:	eb02 02dc 	add.w	r2, r2, ip, lsr #3
    1e7e:	f1c2 0320 	rsb	r3, r2, #32
    1e82:	fa00 fc03 	lsl.w	ip, r0, r3
    1e86:	fa20 f002 	lsr.w	r0, r0, r2
    1e8a:	fa01 fe03 	lsl.w	lr, r1, r3
    1e8e:	ea40 000e 	orr.w	r0, r0, lr
    1e92:	fa21 f102 	lsr.w	r1, r1, r2
    1e96:	4414      	add	r4, r2
    1e98:	e6c1      	b.n	1c1e <__adddf3+0xe6>
    1e9a:	bf00      	nop

00001e9c <__aeabi_dmul>:
    1e9c:	b570      	push	{r4, r5, r6, lr}
    1e9e:	f04f 0cff 	mov.w	ip, #255	; 0xff
    1ea2:	f44c 6ce0 	orr.w	ip, ip, #1792	; 0x700
    1ea6:	ea1c 5411 	ands.w	r4, ip, r1, lsr #20
    1eaa:	bf1d      	ittte	ne
    1eac:	ea1c 5513 	andsne.w	r5, ip, r3, lsr #20
    1eb0:	ea94 0f0c 	teqne	r4, ip
    1eb4:	ea95 0f0c 	teqne	r5, ip
    1eb8:	f000 f8de 	bleq	2078 <__aeabi_dmul+0x1dc>
    1ebc:	442c      	add	r4, r5
    1ebe:	ea81 0603 	eor.w	r6, r1, r3
    1ec2:	ea21 514c 	bic.w	r1, r1, ip, lsl #21
    1ec6:	ea23 534c 	bic.w	r3, r3, ip, lsl #21
    1eca:	ea50 3501 	orrs.w	r5, r0, r1, lsl #12
    1ece:	bf18      	it	ne
    1ed0:	ea52 3503 	orrsne.w	r5, r2, r3, lsl #12
    1ed4:	f441 1180 	orr.w	r1, r1, #1048576	; 0x100000
    1ed8:	f443 1380 	orr.w	r3, r3, #1048576	; 0x100000
    1edc:	d038      	beq.n	1f50 <__aeabi_dmul+0xb4>
    1ede:	fba0 ce02 	umull	ip, lr, r0, r2
    1ee2:	f04f 0500 	mov.w	r5, #0
    1ee6:	fbe1 e502 	umlal	lr, r5, r1, r2
    1eea:	f006 4200 	and.w	r2, r6, #2147483648	; 0x80000000
    1eee:	fbe0 e503 	umlal	lr, r5, r0, r3
    1ef2:	f04f 0600 	mov.w	r6, #0
    1ef6:	fbe1 5603 	umlal	r5, r6, r1, r3
    1efa:	f09c 0f00 	teq	ip, #0
    1efe:	bf18      	it	ne
    1f00:	f04e 0e01 	orrne.w	lr, lr, #1
    1f04:	f1a4 04ff 	sub.w	r4, r4, #255	; 0xff
    1f08:	f5b6 7f00 	cmp.w	r6, #512	; 0x200
    1f0c:	f564 7440 	sbc.w	r4, r4, #768	; 0x300
    1f10:	d204      	bcs.n	1f1c <__aeabi_dmul+0x80>
    1f12:	ea5f 0e4e 	movs.w	lr, lr, lsl #1
    1f16:	416d      	adcs	r5, r5
    1f18:	eb46 0606 	adc.w	r6, r6, r6
    1f1c:	ea42 21c6 	orr.w	r1, r2, r6, lsl #11
    1f20:	ea41 5155 	orr.w	r1, r1, r5, lsr #21
    1f24:	ea4f 20c5 	mov.w	r0, r5, lsl #11
    1f28:	ea40 505e 	orr.w	r0, r0, lr, lsr #21
    1f2c:	ea4f 2ece 	mov.w	lr, lr, lsl #11
    1f30:	f1b4 0cfd 	subs.w	ip, r4, #253	; 0xfd
    1f34:	bf88      	it	hi
    1f36:	f5bc 6fe0 	cmphi.w	ip, #1792	; 0x700
    1f3a:	d81e      	bhi.n	1f7a <__aeabi_dmul+0xde>
    1f3c:	f1be 4f00 	cmp.w	lr, #2147483648	; 0x80000000
    1f40:	bf08      	it	eq
    1f42:	ea5f 0e50 	movseq.w	lr, r0, lsr #1
    1f46:	f150 0000 	adcs.w	r0, r0, #0
    1f4a:	eb41 5104 	adc.w	r1, r1, r4, lsl #20
    1f4e:	bd70      	pop	{r4, r5, r6, pc}
    1f50:	f006 4600 	and.w	r6, r6, #2147483648	; 0x80000000
    1f54:	ea46 0101 	orr.w	r1, r6, r1
    1f58:	ea40 0002 	orr.w	r0, r0, r2
    1f5c:	ea81 0103 	eor.w	r1, r1, r3
    1f60:	ebb4 045c 	subs.w	r4, r4, ip, lsr #1
    1f64:	bfc2      	ittt	gt
    1f66:	ebd4 050c 	rsbsgt	r5, r4, ip
    1f6a:	ea41 5104 	orrgt.w	r1, r1, r4, lsl #20
    1f6e:	bd70      	popgt	{r4, r5, r6, pc}
    1f70:	f441 1180 	orr.w	r1, r1, #1048576	; 0x100000
    1f74:	f04f 0e00 	mov.w	lr, #0
    1f78:	3c01      	subs	r4, #1
    1f7a:	f300 80ab 	bgt.w	20d4 <__aeabi_dmul+0x238>
    1f7e:	f114 0f36 	cmn.w	r4, #54	; 0x36
    1f82:	bfde      	ittt	le
    1f84:	2000      	movle	r0, #0
    1f86:	f001 4100 	andle.w	r1, r1, #2147483648	; 0x80000000
    1f8a:	bd70      	pople	{r4, r5, r6, pc}
    1f8c:	f1c4 0400 	rsb	r4, r4, #0
    1f90:	3c20      	subs	r4, #32
    1f92:	da35      	bge.n	2000 <__aeabi_dmul+0x164>
    1f94:	340c      	adds	r4, #12
    1f96:	dc1b      	bgt.n	1fd0 <__aeabi_dmul+0x134>
    1f98:	f104 0414 	add.w	r4, r4, #20
    1f9c:	f1c4 0520 	rsb	r5, r4, #32
    1fa0:	fa00 f305 	lsl.w	r3, r0, r5
    1fa4:	fa20 f004 	lsr.w	r0, r0, r4
    1fa8:	fa01 f205 	lsl.w	r2, r1, r5
    1fac:	ea40 0002 	orr.w	r0, r0, r2
    1fb0:	f001 4200 	and.w	r2, r1, #2147483648	; 0x80000000
    1fb4:	f021 4100 	bic.w	r1, r1, #2147483648	; 0x80000000
    1fb8:	eb10 70d3 	adds.w	r0, r0, r3, lsr #31
    1fbc:	fa21 f604 	lsr.w	r6, r1, r4
    1fc0:	eb42 0106 	adc.w	r1, r2, r6
    1fc4:	ea5e 0e43 	orrs.w	lr, lr, r3, lsl #1
    1fc8:	bf08      	it	eq
    1fca:	ea20 70d3 	biceq.w	r0, r0, r3, lsr #31
    1fce:	bd70      	pop	{r4, r5, r6, pc}
    1fd0:	f1c4 040c 	rsb	r4, r4, #12
    1fd4:	f1c4 0520 	rsb	r5, r4, #32
    1fd8:	fa00 f304 	lsl.w	r3, r0, r4
    1fdc:	fa20 f005 	lsr.w	r0, r0, r5
    1fe0:	fa01 f204 	lsl.w	r2, r1, r4
    1fe4:	ea40 0002 	orr.w	r0, r0, r2
    1fe8:	f001 4100 	and.w	r1, r1, #2147483648	; 0x80000000
    1fec:	eb10 70d3 	adds.w	r0, r0, r3, lsr #31
    1ff0:	f141 0100 	adc.w	r1, r1, #0
    1ff4:	ea5e 0e43 	orrs.w	lr, lr, r3, lsl #1
    1ff8:	bf08      	it	eq
    1ffa:	ea20 70d3 	biceq.w	r0, r0, r3, lsr #31
    1ffe:	bd70      	pop	{r4, r5, r6, pc}
    2000:	f1c4 0520 	rsb	r5, r4, #32
    2004:	fa00 f205 	lsl.w	r2, r0, r5
    2008:	ea4e 0e02 	orr.w	lr, lr, r2
    200c:	fa20 f304 	lsr.w	r3, r0, r4
    2010:	fa01 f205 	lsl.w	r2, r1, r5
    2014:	ea43 0302 	orr.w	r3, r3, r2
    2018:	fa21 f004 	lsr.w	r0, r1, r4
    201c:	f001 4100 	and.w	r1, r1, #2147483648	; 0x80000000
    2020:	fa21 f204 	lsr.w	r2, r1, r4
    2024:	ea20 0002 	bic.w	r0, r0, r2
    2028:	eb00 70d3 	add.w	r0, r0, r3, lsr #31
    202c:	ea5e 0e43 	orrs.w	lr, lr, r3, lsl #1
    2030:	bf08      	it	eq
    2032:	ea20 70d3 	biceq.w	r0, r0, r3, lsr #31
    2036:	bd70      	pop	{r4, r5, r6, pc}
    2038:	f094 0f00 	teq	r4, #0
    203c:	d10f      	bne.n	205e <__aeabi_dmul+0x1c2>
    203e:	f001 4600 	and.w	r6, r1, #2147483648	; 0x80000000
    2042:	0040      	lsls	r0, r0, #1
    2044:	eb41 0101 	adc.w	r1, r1, r1
    2048:	f411 1f80 	tst.w	r1, #1048576	; 0x100000
    204c:	bf08      	it	eq
    204e:	3c01      	subeq	r4, #1
    2050:	d0f7      	beq.n	2042 <__aeabi_dmul+0x1a6>
    2052:	ea41 0106 	orr.w	r1, r1, r6
    2056:	f095 0f00 	teq	r5, #0
    205a:	bf18      	it	ne
    205c:	4770      	bxne	lr
    205e:	f003 4600 	and.w	r6, r3, #2147483648	; 0x80000000
    2062:	0052      	lsls	r2, r2, #1
    2064:	eb43 0303 	adc.w	r3, r3, r3
    2068:	f413 1f80 	tst.w	r3, #1048576	; 0x100000
    206c:	bf08      	it	eq
    206e:	3d01      	subeq	r5, #1
    2070:	d0f7      	beq.n	2062 <__aeabi_dmul+0x1c6>
    2072:	ea43 0306 	orr.w	r3, r3, r6
    2076:	4770      	bx	lr
    2078:	ea94 0f0c 	teq	r4, ip
    207c:	ea0c 5513 	and.w	r5, ip, r3, lsr #20
    2080:	bf18      	it	ne
    2082:	ea95 0f0c 	teqne	r5, ip
    2086:	d00c      	beq.n	20a2 <__aeabi_dmul+0x206>
    2088:	ea50 0641 	orrs.w	r6, r0, r1, lsl #1
    208c:	bf18      	it	ne
    208e:	ea52 0643 	orrsne.w	r6, r2, r3, lsl #1
    2092:	d1d1      	bne.n	2038 <__aeabi_dmul+0x19c>
    2094:	ea81 0103 	eor.w	r1, r1, r3
    2098:	f001 4100 	and.w	r1, r1, #2147483648	; 0x80000000
    209c:	f04f 0000 	mov.w	r0, #0
    20a0:	bd70      	pop	{r4, r5, r6, pc}
    20a2:	ea50 0641 	orrs.w	r6, r0, r1, lsl #1
    20a6:	bf06      	itte	eq
    20a8:	4610      	moveq	r0, r2
    20aa:	4619      	moveq	r1, r3
    20ac:	ea52 0643 	orrsne.w	r6, r2, r3, lsl #1
    20b0:	d019      	beq.n	20e6 <__aeabi_dmul+0x24a>
    20b2:	ea94 0f0c 	teq	r4, ip
    20b6:	d102      	bne.n	20be <__aeabi_dmul+0x222>
    20b8:	ea50 3601 	orrs.w	r6, r0, r1, lsl #12
    20bc:	d113      	bne.n	20e6 <__aeabi_dmul+0x24a>
    20be:	ea95 0f0c 	teq	r5, ip
    20c2:	d105      	bne.n	20d0 <__aeabi_dmul+0x234>
    20c4:	ea52 3603 	orrs.w	r6, r2, r3, lsl #12
    20c8:	bf1c      	itt	ne
    20ca:	4610      	movne	r0, r2
    20cc:	4619      	movne	r1, r3
    20ce:	d10a      	bne.n	20e6 <__aeabi_dmul+0x24a>
    20d0:	ea81 0103 	eor.w	r1, r1, r3
    20d4:	f001 4100 	and.w	r1, r1, #2147483648	; 0x80000000
    20d8:	f041 41fe 	orr.w	r1, r1, #2130706432	; 0x7f000000
    20dc:	f441 0170 	orr.w	r1, r1, #15728640	; 0xf00000
    20e0:	f04f 0000 	mov.w	r0, #0
    20e4:	bd70      	pop	{r4, r5, r6, pc}
    20e6:	f041 41fe 	orr.w	r1, r1, #2130706432	; 0x7f000000
    20ea:	f441 0178 	orr.w	r1, r1, #16252928	; 0xf80000
    20ee:	bd70      	pop	{r4, r5, r6, pc}

000020f0 <__aeabi_ddiv>:
    20f0:	b570      	push	{r4, r5, r6, lr}
    20f2:	f04f 0cff 	mov.w	ip, #255	; 0xff
    20f6:	f44c 6ce0 	orr.w	ip, ip, #1792	; 0x700
    20fa:	ea1c 5411 	ands.w	r4, ip, r1, lsr #20
    20fe:	bf1d      	ittte	ne
    2100:	ea1c 5513 	andsne.w	r5, ip, r3, lsr #20
    2104:	ea94 0f0c 	teqne	r4, ip
    2108:	ea95 0f0c 	teqne	r5, ip
    210c:	f000 f8a7 	bleq	225e <__aeabi_ddiv+0x16e>
    2110:	eba4 0405 	sub.w	r4, r4, r5
    2114:	ea81 0e03 	eor.w	lr, r1, r3
    2118:	ea52 3503 	orrs.w	r5, r2, r3, lsl #12
    211c:	ea4f 3101 	mov.w	r1, r1, lsl #12
    2120:	f000 8088 	beq.w	2234 <__aeabi_ddiv+0x144>
    2124:	ea4f 3303 	mov.w	r3, r3, lsl #12
    2128:	f04f 5580 	mov.w	r5, #268435456	; 0x10000000
    212c:	ea45 1313 	orr.w	r3, r5, r3, lsr #4
    2130:	ea43 6312 	orr.w	r3, r3, r2, lsr #24
    2134:	ea4f 2202 	mov.w	r2, r2, lsl #8
    2138:	ea45 1511 	orr.w	r5, r5, r1, lsr #4
    213c:	ea45 6510 	orr.w	r5, r5, r0, lsr #24
    2140:	ea4f 2600 	mov.w	r6, r0, lsl #8
    2144:	f00e 4100 	and.w	r1, lr, #2147483648	; 0x80000000
    2148:	429d      	cmp	r5, r3
    214a:	bf08      	it	eq
    214c:	4296      	cmpeq	r6, r2
    214e:	f144 04fd 	adc.w	r4, r4, #253	; 0xfd
    2152:	f504 7440 	add.w	r4, r4, #768	; 0x300
    2156:	d202      	bcs.n	215e <__aeabi_ddiv+0x6e>
    2158:	085b      	lsrs	r3, r3, #1
    215a:	ea4f 0232 	mov.w	r2, r2, rrx
    215e:	1ab6      	subs	r6, r6, r2
    2160:	eb65 0503 	sbc.w	r5, r5, r3
    2164:	085b      	lsrs	r3, r3, #1
    2166:	ea4f 0232 	mov.w	r2, r2, rrx
    216a:	f44f 1080 	mov.w	r0, #1048576	; 0x100000
    216e:	f44f 2c00 	mov.w	ip, #524288	; 0x80000
    2172:	ebb6 0e02 	subs.w	lr, r6, r2
    2176:	eb75 0e03 	sbcs.w	lr, r5, r3
    217a:	bf22      	ittt	cs
    217c:	1ab6      	subcs	r6, r6, r2
    217e:	4675      	movcs	r5, lr
    2180:	ea40 000c 	orrcs.w	r0, r0, ip
    2184:	085b      	lsrs	r3, r3, #1
    2186:	ea4f 0232 	mov.w	r2, r2, rrx
    218a:	ebb6 0e02 	subs.w	lr, r6, r2
    218e:	eb75 0e03 	sbcs.w	lr, r5, r3
    2192:	bf22      	ittt	cs
    2194:	1ab6      	subcs	r6, r6, r2
    2196:	4675      	movcs	r5, lr
    2198:	ea40 005c 	orrcs.w	r0, r0, ip, lsr #1
    219c:	085b      	lsrs	r3, r3, #1
    219e:	ea4f 0232 	mov.w	r2, r2, rrx
    21a2:	ebb6 0e02 	subs.w	lr, r6, r2
    21a6:	eb75 0e03 	sbcs.w	lr, r5, r3
    21aa:	bf22      	ittt	cs
    21ac:	1ab6      	subcs	r6, r6, r2
    21ae:	4675      	movcs	r5, lr
    21b0:	ea40 009c 	orrcs.w	r0, r0, ip, lsr #2
    21b4:	085b      	lsrs	r3, r3, #1
    21b6:	ea4f 0232 	mov.w	r2, r2, rrx
    21ba:	ebb6 0e02 	subs.w	lr, r6, r2
    21be:	eb75 0e03 	sbcs.w	lr, r5, r3
    21c2:	bf22      	ittt	cs
    21c4:	1ab6      	subcs	r6, r6, r2
    21c6:	4675      	movcs	r5, lr
    21c8:	ea40 00dc 	orrcs.w	r0, r0, ip, lsr #3
    21cc:	ea55 0e06 	orrs.w	lr, r5, r6
    21d0:	d018      	beq.n	2204 <__aeabi_ddiv+0x114>
    21d2:	ea4f 1505 	mov.w	r5, r5, lsl #4
    21d6:	ea45 7516 	orr.w	r5, r5, r6, lsr #28
    21da:	ea4f 1606 	mov.w	r6, r6, lsl #4
    21de:	ea4f 03c3 	mov.w	r3, r3, lsl #3
    21e2:	ea43 7352 	orr.w	r3, r3, r2, lsr #29
    21e6:	ea4f 02c2 	mov.w	r2, r2, lsl #3
    21ea:	ea5f 1c1c 	movs.w	ip, ip, lsr #4
    21ee:	d1c0      	bne.n	2172 <__aeabi_ddiv+0x82>
    21f0:	f411 1f80 	tst.w	r1, #1048576	; 0x100000
    21f4:	d10b      	bne.n	220e <__aeabi_ddiv+0x11e>
    21f6:	ea41 0100 	orr.w	r1, r1, r0
    21fa:	f04f 0000 	mov.w	r0, #0
    21fe:	f04f 4c00 	mov.w	ip, #2147483648	; 0x80000000
    2202:	e7b6      	b.n	2172 <__aeabi_ddiv+0x82>
    2204:	f411 1f80 	tst.w	r1, #1048576	; 0x100000
    2208:	bf04      	itt	eq
    220a:	4301      	orreq	r1, r0
    220c:	2000      	moveq	r0, #0
    220e:	f1b4 0cfd 	subs.w	ip, r4, #253	; 0xfd
    2212:	bf88      	it	hi
    2214:	f5bc 6fe0 	cmphi.w	ip, #1792	; 0x700
    2218:	f63f aeaf 	bhi.w	1f7a <__aeabi_dmul+0xde>
    221c:	ebb5 0c03 	subs.w	ip, r5, r3
    2220:	bf04      	itt	eq
    2222:	ebb6 0c02 	subseq.w	ip, r6, r2
    2226:	ea5f 0c50 	movseq.w	ip, r0, lsr #1
    222a:	f150 0000 	adcs.w	r0, r0, #0
    222e:	eb41 5104 	adc.w	r1, r1, r4, lsl #20
    2232:	bd70      	pop	{r4, r5, r6, pc}
    2234:	f00e 4e00 	and.w	lr, lr, #2147483648	; 0x80000000
    2238:	ea4e 3111 	orr.w	r1, lr, r1, lsr #12
    223c:	eb14 045c 	adds.w	r4, r4, ip, lsr #1
    2240:	bfc2      	ittt	gt
    2242:	ebd4 050c 	rsbsgt	r5, r4, ip
    2246:	ea41 5104 	orrgt.w	r1, r1, r4, lsl #20
    224a:	bd70      	popgt	{r4, r5, r6, pc}
    224c:	f441 1180 	orr.w	r1, r1, #1048576	; 0x100000
    2250:	f04f 0e00 	mov.w	lr, #0
    2254:	3c01      	subs	r4, #1
    2256:	e690      	b.n	1f7a <__aeabi_dmul+0xde>
    2258:	ea45 0e06 	orr.w	lr, r5, r6
    225c:	e68d      	b.n	1f7a <__aeabi_dmul+0xde>
    225e:	ea0c 5513 	and.w	r5, ip, r3, lsr #20
    2262:	ea94 0f0c 	teq	r4, ip
    2266:	bf08      	it	eq
    2268:	ea95 0f0c 	teqeq	r5, ip
    226c:	f43f af3b 	beq.w	20e6 <__aeabi_dmul+0x24a>
    2270:	ea94 0f0c 	teq	r4, ip
    2274:	d10a      	bne.n	228c <__aeabi_ddiv+0x19c>
    2276:	ea50 3401 	orrs.w	r4, r0, r1, lsl #12
    227a:	f47f af34 	bne.w	20e6 <__aeabi_dmul+0x24a>
    227e:	ea95 0f0c 	teq	r5, ip
    2282:	f47f af25 	bne.w	20d0 <__aeabi_dmul+0x234>
    2286:	4610      	mov	r0, r2
    2288:	4619      	mov	r1, r3
    228a:	e72c      	b.n	20e6 <__aeabi_dmul+0x24a>
    228c:	ea95 0f0c 	teq	r5, ip
    2290:	d106      	bne.n	22a0 <__aeabi_ddiv+0x1b0>
    2292:	ea52 3503 	orrs.w	r5, r2, r3, lsl #12
    2296:	f43f aefd 	beq.w	2094 <__aeabi_dmul+0x1f8>
    229a:	4610      	mov	r0, r2
    229c:	4619      	mov	r1, r3
    229e:	e722      	b.n	20e6 <__aeabi_dmul+0x24a>
    22a0:	ea50 0641 	orrs.w	r6, r0, r1, lsl #1
    22a4:	bf18      	it	ne
    22a6:	ea52 0643 	orrsne.w	r6, r2, r3, lsl #1
    22aa:	f47f aec5 	bne.w	2038 <__aeabi_dmul+0x19c>
    22ae:	ea50 0441 	orrs.w	r4, r0, r1, lsl #1
    22b2:	f47f af0d 	bne.w	20d0 <__aeabi_dmul+0x234>
    22b6:	ea52 0543 	orrs.w	r5, r2, r3, lsl #1
    22ba:	f47f aeeb 	bne.w	2094 <__aeabi_dmul+0x1f8>
    22be:	e712      	b.n	20e6 <__aeabi_dmul+0x24a>

000022c0 <__aeabi_d2f>:
    22c0:	ea4f 0241 	mov.w	r2, r1, lsl #1
    22c4:	f1b2 43e0 	subs.w	r3, r2, #1879048192	; 0x70000000
    22c8:	bf24      	itt	cs
    22ca:	f5b3 1c00 	subscs.w	ip, r3, #2097152	; 0x200000
    22ce:	f1dc 5cfe 	rsbscs	ip, ip, #532676608	; 0x1fc00000
    22d2:	d90d      	bls.n	22f0 <__aeabi_d2f+0x30>
    22d4:	f001 4c00 	and.w	ip, r1, #2147483648	; 0x80000000
    22d8:	ea4f 02c0 	mov.w	r2, r0, lsl #3
    22dc:	ea4c 7050 	orr.w	r0, ip, r0, lsr #29
    22e0:	f1b2 4f00 	cmp.w	r2, #2147483648	; 0x80000000
    22e4:	eb40 0083 	adc.w	r0, r0, r3, lsl #2
    22e8:	bf08      	it	eq
    22ea:	f020 0001 	biceq.w	r0, r0, #1
    22ee:	4770      	bx	lr
    22f0:	f011 4f80 	tst.w	r1, #1073741824	; 0x40000000
    22f4:	d121      	bne.n	233a <__aeabi_d2f+0x7a>
    22f6:	f113 7238 	adds.w	r2, r3, #48234496	; 0x2e00000
    22fa:	bfbc      	itt	lt
    22fc:	f001 4000 	andlt.w	r0, r1, #2147483648	; 0x80000000
    2300:	4770      	bxlt	lr
    2302:	f441 1180 	orr.w	r1, r1, #1048576	; 0x100000
    2306:	ea4f 5252 	mov.w	r2, r2, lsr #21
    230a:	f1c2 0218 	rsb	r2, r2, #24
    230e:	f1c2 0c20 	rsb	ip, r2, #32
    2312:	fa10 f30c 	lsls.w	r3, r0, ip
    2316:	fa20 f002 	lsr.w	r0, r0, r2
    231a:	bf18      	it	ne
    231c:	f040 0001 	orrne.w	r0, r0, #1
    2320:	ea4f 23c1 	mov.w	r3, r1, lsl #11
    2324:	ea4f 23d3 	mov.w	r3, r3, lsr #11
    2328:	fa03 fc0c 	lsl.w	ip, r3, ip
    232c:	ea40 000c 	orr.w	r0, r0, ip
    2330:	fa23 f302 	lsr.w	r3, r3, r2
    2334:	ea4f 0343 	mov.w	r3, r3, lsl #1
    2338:	e7cc      	b.n	22d4 <__aeabi_d2f+0x14>
    233a:	ea7f 5362 	mvns.w	r3, r2, asr #21
    233e:	d107      	bne.n	2350 <__aeabi_d2f+0x90>
    2340:	ea50 3301 	orrs.w	r3, r0, r1, lsl #12
    2344:	bf1e      	ittt	ne
    2346:	f04f 40fe 	movne.w	r0, #2130706432	; 0x7f000000
    234a:	f440 0040 	orrne.w	r0, r0, #12582912	; 0xc00000
    234e:	4770      	bxne	lr
    2350:	f001 4000 	and.w	r0, r1, #2147483648	; 0x80000000
    2354:	f040 40fe 	orr.w	r0, r0, #2130706432	; 0x7f000000
    2358:	f440 0000 	orr.w	r0, r0, #8388608	; 0x800000
    235c:	4770      	bx	lr
    235e:	bf00      	nop

00002360 <__aeabi_frsub>:
    2360:	f080 4000 	eor.w	r0, r0, #2147483648	; 0x80000000
    2364:	e002      	b.n	236c <__addsf3>
    2366:	bf00      	nop

00002368 <__aeabi_fsub>:
    2368:	f081 4100 	eor.w	r1, r1, #2147483648	; 0x80000000

0000236c <__addsf3>:
    236c:	0042      	lsls	r2, r0, #1
    236e:	bf1f      	itttt	ne
    2370:	ea5f 0341 	movsne.w	r3, r1, lsl #1
    2374:	ea92 0f03 	teqne	r2, r3
    2378:	ea7f 6c22 	mvnsne.w	ip, r2, asr #24
    237c:	ea7f 6c23 	mvnsne.w	ip, r3, asr #24
    2380:	d06a      	beq.n	2458 <__addsf3+0xec>
    2382:	ea4f 6212 	mov.w	r2, r2, lsr #24
    2386:	ebd2 6313 	rsbs	r3, r2, r3, lsr #24
    238a:	bfc1      	itttt	gt
    238c:	18d2      	addgt	r2, r2, r3
    238e:	4041      	eorgt	r1, r0
    2390:	4048      	eorgt	r0, r1
    2392:	4041      	eorgt	r1, r0
    2394:	bfb8      	it	lt
    2396:	425b      	neglt	r3, r3
    2398:	2b19      	cmp	r3, #25
    239a:	bf88      	it	hi
    239c:	4770      	bxhi	lr
    239e:	f010 4f00 	tst.w	r0, #2147483648	; 0x80000000
    23a2:	f440 0000 	orr.w	r0, r0, #8388608	; 0x800000
    23a6:	f020 407f 	bic.w	r0, r0, #4278190080	; 0xff000000
    23aa:	bf18      	it	ne
    23ac:	4240      	negne	r0, r0
    23ae:	f011 4f00 	tst.w	r1, #2147483648	; 0x80000000
    23b2:	f441 0100 	orr.w	r1, r1, #8388608	; 0x800000
    23b6:	f021 417f 	bic.w	r1, r1, #4278190080	; 0xff000000
    23ba:	bf18      	it	ne
    23bc:	4249      	negne	r1, r1
    23be:	ea92 0f03 	teq	r2, r3
    23c2:	d03f      	beq.n	2444 <__addsf3+0xd8>
    23c4:	f1a2 0201 	sub.w	r2, r2, #1
    23c8:	fa41 fc03 	asr.w	ip, r1, r3
    23cc:	eb10 000c 	adds.w	r0, r0, ip
    23d0:	f1c3 0320 	rsb	r3, r3, #32
    23d4:	fa01 f103 	lsl.w	r1, r1, r3
    23d8:	f000 4300 	and.w	r3, r0, #2147483648	; 0x80000000
    23dc:	d502      	bpl.n	23e4 <__addsf3+0x78>
    23de:	4249      	negs	r1, r1
    23e0:	eb60 0040 	sbc.w	r0, r0, r0, lsl #1
    23e4:	f5b0 0f00 	cmp.w	r0, #8388608	; 0x800000
    23e8:	d313      	bcc.n	2412 <__addsf3+0xa6>
    23ea:	f1b0 7f80 	cmp.w	r0, #16777216	; 0x1000000
    23ee:	d306      	bcc.n	23fe <__addsf3+0x92>
    23f0:	0840      	lsrs	r0, r0, #1
    23f2:	ea4f 0131 	mov.w	r1, r1, rrx
    23f6:	f102 0201 	add.w	r2, r2, #1
    23fa:	2afe      	cmp	r2, #254	; 0xfe
    23fc:	d251      	bcs.n	24a2 <__addsf3+0x136>
    23fe:	f1b1 4f00 	cmp.w	r1, #2147483648	; 0x80000000
    2402:	eb40 50c2 	adc.w	r0, r0, r2, lsl #23
    2406:	bf08      	it	eq
    2408:	f020 0001 	biceq.w	r0, r0, #1
    240c:	ea40 0003 	orr.w	r0, r0, r3
    2410:	4770      	bx	lr
    2412:	0049      	lsls	r1, r1, #1
    2414:	eb40 0000 	adc.w	r0, r0, r0
    2418:	f410 0f00 	tst.w	r0, #8388608	; 0x800000
    241c:	f1a2 0201 	sub.w	r2, r2, #1
    2420:	d1ed      	bne.n	23fe <__addsf3+0x92>
    2422:	fab0 fc80 	clz	ip, r0
    2426:	f1ac 0c08 	sub.w	ip, ip, #8
    242a:	ebb2 020c 	subs.w	r2, r2, ip
    242e:	fa00 f00c 	lsl.w	r0, r0, ip
    2432:	bfaa      	itet	ge
    2434:	eb00 50c2 	addge.w	r0, r0, r2, lsl #23
    2438:	4252      	neglt	r2, r2
    243a:	4318      	orrge	r0, r3
    243c:	bfbc      	itt	lt
    243e:	40d0      	lsrlt	r0, r2
    2440:	4318      	orrlt	r0, r3
    2442:	4770      	bx	lr
    2444:	f092 0f00 	teq	r2, #0
    2448:	f481 0100 	eor.w	r1, r1, #8388608	; 0x800000
    244c:	bf06      	itte	eq
    244e:	f480 0000 	eoreq.w	r0, r0, #8388608	; 0x800000
    2452:	3201      	addeq	r2, #1
    2454:	3b01      	subne	r3, #1
    2456:	e7b5      	b.n	23c4 <__addsf3+0x58>
    2458:	ea4f 0341 	mov.w	r3, r1, lsl #1
    245c:	ea7f 6c22 	mvns.w	ip, r2, asr #24
    2460:	bf18      	it	ne
    2462:	ea7f 6c23 	mvnsne.w	ip, r3, asr #24
    2466:	d021      	beq.n	24ac <__addsf3+0x140>
    2468:	ea92 0f03 	teq	r2, r3
    246c:	d004      	beq.n	2478 <__addsf3+0x10c>
    246e:	f092 0f00 	teq	r2, #0
    2472:	bf08      	it	eq
    2474:	4608      	moveq	r0, r1
    2476:	4770      	bx	lr
    2478:	ea90 0f01 	teq	r0, r1
    247c:	bf1c      	itt	ne
    247e:	2000      	movne	r0, #0
    2480:	4770      	bxne	lr
    2482:	f012 4f7f 	tst.w	r2, #4278190080	; 0xff000000
    2486:	d104      	bne.n	2492 <__addsf3+0x126>
    2488:	0040      	lsls	r0, r0, #1
    248a:	bf28      	it	cs
    248c:	f040 4000 	orrcs.w	r0, r0, #2147483648	; 0x80000000
    2490:	4770      	bx	lr
    2492:	f112 7200 	adds.w	r2, r2, #33554432	; 0x2000000
    2496:	bf3c      	itt	cc
    2498:	f500 0000 	addcc.w	r0, r0, #8388608	; 0x800000
    249c:	4770      	bxcc	lr
    249e:	f000 4300 	and.w	r3, r0, #2147483648	; 0x80000000
    24a2:	f043 40fe 	orr.w	r0, r3, #2130706432	; 0x7f000000
    24a6:	f440 0000 	orr.w	r0, r0, #8388608	; 0x800000
    24aa:	4770      	bx	lr
    24ac:	ea7f 6222 	mvns.w	r2, r2, asr #24
    24b0:	bf16      	itet	ne
    24b2:	4608      	movne	r0, r1
    24b4:	ea7f 6323 	mvnseq.w	r3, r3, asr #24
    24b8:	4601      	movne	r1, r0
    24ba:	0242      	lsls	r2, r0, #9
    24bc:	bf06      	itte	eq
    24be:	ea5f 2341 	movseq.w	r3, r1, lsl #9
    24c2:	ea90 0f01 	teqeq	r0, r1
    24c6:	f440 0080 	orrne.w	r0, r0, #4194304	; 0x400000
    24ca:	4770      	bx	lr

000024cc <__aeabi_ui2f>:
    24cc:	f04f 0300 	mov.w	r3, #0
    24d0:	e004      	b.n	24dc <__aeabi_i2f+0x8>
    24d2:	bf00      	nop

000024d4 <__aeabi_i2f>:
    24d4:	f010 4300 	ands.w	r3, r0, #2147483648	; 0x80000000
    24d8:	bf48      	it	mi
    24da:	4240      	negmi	r0, r0
    24dc:	ea5f 0c00 	movs.w	ip, r0
    24e0:	bf08      	it	eq
    24e2:	4770      	bxeq	lr
    24e4:	f043 4396 	orr.w	r3, r3, #1258291200	; 0x4b000000
    24e8:	4601      	mov	r1, r0
    24ea:	f04f 0000 	mov.w	r0, #0
    24ee:	e01c      	b.n	252a <__aeabi_l2f+0x2a>

000024f0 <__aeabi_ul2f>:
    24f0:	ea50 0201 	orrs.w	r2, r0, r1
    24f4:	bf08      	it	eq
    24f6:	4770      	bxeq	lr
    24f8:	f04f 0300 	mov.w	r3, #0
    24fc:	e00a      	b.n	2514 <__aeabi_l2f+0x14>
    24fe:	bf00      	nop

00002500 <__aeabi_l2f>:
    2500:	ea50 0201 	orrs.w	r2, r0, r1
    2504:	bf08      	it	eq
    2506:	4770      	bxeq	lr
    2508:	f011 4300 	ands.w	r3, r1, #2147483648	; 0x80000000
    250c:	d502      	bpl.n	2514 <__aeabi_l2f+0x14>
    250e:	4240      	negs	r0, r0
    2510:	eb61 0141 	sbc.w	r1, r1, r1, lsl #1
    2514:	ea5f 0c01 	movs.w	ip, r1
    2518:	bf02      	ittt	eq
    251a:	4684      	moveq	ip, r0
    251c:	4601      	moveq	r1, r0
    251e:	2000      	moveq	r0, #0
    2520:	f043 43b6 	orr.w	r3, r3, #1526726656	; 0x5b000000
    2524:	bf08      	it	eq
    2526:	f1a3 5380 	subeq.w	r3, r3, #268435456	; 0x10000000
    252a:	f5a3 0300 	sub.w	r3, r3, #8388608	; 0x800000
    252e:	fabc f28c 	clz	r2, ip
    2532:	3a08      	subs	r2, #8
    2534:	eba3 53c2 	sub.w	r3, r3, r2, lsl #23
    2538:	db10      	blt.n	255c <__aeabi_l2f+0x5c>
    253a:	fa01 fc02 	lsl.w	ip, r1, r2
    253e:	4463      	add	r3, ip
    2540:	fa00 fc02 	lsl.w	ip, r0, r2
    2544:	f1c2 0220 	rsb	r2, r2, #32
    2548:	f1bc 4f00 	cmp.w	ip, #2147483648	; 0x80000000
    254c:	fa20 f202 	lsr.w	r2, r0, r2
    2550:	eb43 0002 	adc.w	r0, r3, r2
    2554:	bf08      	it	eq
    2556:	f020 0001 	biceq.w	r0, r0, #1
    255a:	4770      	bx	lr
    255c:	f102 0220 	add.w	r2, r2, #32
    2560:	fa01 fc02 	lsl.w	ip, r1, r2
    2564:	f1c2 0220 	rsb	r2, r2, #32
    2568:	ea50 004c 	orrs.w	r0, r0, ip, lsl #1
    256c:	fa21 f202 	lsr.w	r2, r1, r2
    2570:	eb43 0002 	adc.w	r0, r3, r2
    2574:	bf08      	it	eq
    2576:	ea20 70dc 	biceq.w	r0, r0, ip, lsr #31
    257a:	4770      	bx	lr

0000257c <__aeabi_fmul>:
    257c:	f04f 0cff 	mov.w	ip, #255	; 0xff
    2580:	ea1c 52d0 	ands.w	r2, ip, r0, lsr #23
    2584:	bf1e      	ittt	ne
    2586:	ea1c 53d1 	andsne.w	r3, ip, r1, lsr #23
    258a:	ea92 0f0c 	teqne	r2, ip
    258e:	ea93 0f0c 	teqne	r3, ip
    2592:	d06f      	beq.n	2674 <__aeabi_fmul+0xf8>
    2594:	441a      	add	r2, r3
    2596:	ea80 0c01 	eor.w	ip, r0, r1
    259a:	0240      	lsls	r0, r0, #9
    259c:	bf18      	it	ne
    259e:	ea5f 2141 	movsne.w	r1, r1, lsl #9
    25a2:	d01e      	beq.n	25e2 <__aeabi_fmul+0x66>
    25a4:	f04f 6300 	mov.w	r3, #134217728	; 0x8000000
    25a8:	ea43 1050 	orr.w	r0, r3, r0, lsr #5
    25ac:	ea43 1151 	orr.w	r1, r3, r1, lsr #5
    25b0:	fba0 3101 	umull	r3, r1, r0, r1
    25b4:	f00c 4000 	and.w	r0, ip, #2147483648	; 0x80000000
    25b8:	f5b1 0f00 	cmp.w	r1, #8388608	; 0x800000
    25bc:	bf3e      	ittt	cc
    25be:	0049      	lslcc	r1, r1, #1
    25c0:	ea41 71d3 	orrcc.w	r1, r1, r3, lsr #31
    25c4:	005b      	lslcc	r3, r3, #1
    25c6:	ea40 0001 	orr.w	r0, r0, r1
    25ca:	f162 027f 	sbc.w	r2, r2, #127	; 0x7f
    25ce:	2afd      	cmp	r2, #253	; 0xfd
    25d0:	d81d      	bhi.n	260e <__aeabi_fmul+0x92>
    25d2:	f1b3 4f00 	cmp.w	r3, #2147483648	; 0x80000000
    25d6:	eb40 50c2 	adc.w	r0, r0, r2, lsl #23
    25da:	bf08      	it	eq
    25dc:	f020 0001 	biceq.w	r0, r0, #1
    25e0:	4770      	bx	lr
    25e2:	f090 0f00 	teq	r0, #0
    25e6:	f00c 4c00 	and.w	ip, ip, #2147483648	; 0x80000000
    25ea:	bf08      	it	eq
    25ec:	0249      	lsleq	r1, r1, #9
    25ee:	ea4c 2050 	orr.w	r0, ip, r0, lsr #9
    25f2:	ea40 2051 	orr.w	r0, r0, r1, lsr #9
    25f6:	3a7f      	subs	r2, #127	; 0x7f
    25f8:	bfc2      	ittt	gt
    25fa:	f1d2 03ff 	rsbsgt	r3, r2, #255	; 0xff
    25fe:	ea40 50c2 	orrgt.w	r0, r0, r2, lsl #23
    2602:	4770      	bxgt	lr
    2604:	f440 0000 	orr.w	r0, r0, #8388608	; 0x800000
    2608:	f04f 0300 	mov.w	r3, #0
    260c:	3a01      	subs	r2, #1
    260e:	dc5d      	bgt.n	26cc <__aeabi_fmul+0x150>
    2610:	f112 0f19 	cmn.w	r2, #25
    2614:	bfdc      	itt	le
    2616:	f000 4000 	andle.w	r0, r0, #2147483648	; 0x80000000
    261a:	4770      	bxle	lr
    261c:	f1c2 0200 	rsb	r2, r2, #0
    2620:	0041      	lsls	r1, r0, #1
    2622:	fa21 f102 	lsr.w	r1, r1, r2
    2626:	f1c2 0220 	rsb	r2, r2, #32
    262a:	fa00 fc02 	lsl.w	ip, r0, r2
    262e:	ea5f 0031 	movs.w	r0, r1, rrx
    2632:	f140 0000 	adc.w	r0, r0, #0
    2636:	ea53 034c 	orrs.w	r3, r3, ip, lsl #1
    263a:	bf08      	it	eq
    263c:	ea20 70dc 	biceq.w	r0, r0, ip, lsr #31
    2640:	4770      	bx	lr
    2642:	f092 0f00 	teq	r2, #0
    2646:	f000 4c00 	and.w	ip, r0, #2147483648	; 0x80000000
    264a:	bf02      	ittt	eq
    264c:	0040      	lsleq	r0, r0, #1
    264e:	f410 0f00 	tsteq.w	r0, #8388608	; 0x800000
    2652:	3a01      	subeq	r2, #1
    2654:	d0f9      	beq.n	264a <__aeabi_fmul+0xce>
    2656:	ea40 000c 	orr.w	r0, r0, ip
    265a:	f093 0f00 	teq	r3, #0
    265e:	f001 4c00 	and.w	ip, r1, #2147483648	; 0x80000000
    2662:	bf02      	ittt	eq
    2664:	0049      	lsleq	r1, r1, #1
    2666:	f411 0f00 	tsteq.w	r1, #8388608	; 0x800000
    266a:	3b01      	subeq	r3, #1
    266c:	d0f9      	beq.n	2662 <__aeabi_fmul+0xe6>
    266e:	ea41 010c 	orr.w	r1, r1, ip
    2672:	e78f      	b.n	2594 <__aeabi_fmul+0x18>
    2674:	ea0c 53d1 	and.w	r3, ip, r1, lsr #23
    2678:	ea92 0f0c 	teq	r2, ip
    267c:	bf18      	it	ne
    267e:	ea93 0f0c 	teqne	r3, ip
    2682:	d00a      	beq.n	269a <__aeabi_fmul+0x11e>
    2684:	f030 4c00 	bics.w	ip, r0, #2147483648	; 0x80000000
    2688:	bf18      	it	ne
    268a:	f031 4c00 	bicsne.w	ip, r1, #2147483648	; 0x80000000
    268e:	d1d8      	bne.n	2642 <__aeabi_fmul+0xc6>
    2690:	ea80 0001 	eor.w	r0, r0, r1
    2694:	f000 4000 	and.w	r0, r0, #2147483648	; 0x80000000
    2698:	4770      	bx	lr
    269a:	f090 0f00 	teq	r0, #0
    269e:	bf17      	itett	ne
    26a0:	f090 4f00 	teqne	r0, #2147483648	; 0x80000000
    26a4:	4608      	moveq	r0, r1
    26a6:	f091 0f00 	teqne	r1, #0
    26aa:	f091 4f00 	teqne	r1, #2147483648	; 0x80000000
    26ae:	d014      	beq.n	26da <__aeabi_fmul+0x15e>
    26b0:	ea92 0f0c 	teq	r2, ip
    26b4:	d101      	bne.n	26ba <__aeabi_fmul+0x13e>
    26b6:	0242      	lsls	r2, r0, #9
    26b8:	d10f      	bne.n	26da <__aeabi_fmul+0x15e>
    26ba:	ea93 0f0c 	teq	r3, ip
    26be:	d103      	bne.n	26c8 <__aeabi_fmul+0x14c>
    26c0:	024b      	lsls	r3, r1, #9
    26c2:	bf18      	it	ne
    26c4:	4608      	movne	r0, r1
    26c6:	d108      	bne.n	26da <__aeabi_fmul+0x15e>
    26c8:	ea80 0001 	eor.w	r0, r0, r1
    26cc:	f000 4000 	and.w	r0, r0, #2147483648	; 0x80000000
    26d0:	f040 40fe 	orr.w	r0, r0, #2130706432	; 0x7f000000
    26d4:	f440 0000 	orr.w	r0, r0, #8388608	; 0x800000
    26d8:	4770      	bx	lr
    26da:	f040 40fe 	orr.w	r0, r0, #2130706432	; 0x7f000000
    26de:	f440 0040 	orr.w	r0, r0, #12582912	; 0xc00000
    26e2:	4770      	bx	lr

000026e4 <__aeabi_fdiv>:
    26e4:	f04f 0cff 	mov.w	ip, #255	; 0xff
    26e8:	ea1c 52d0 	ands.w	r2, ip, r0, lsr #23
    26ec:	bf1e      	ittt	ne
    26ee:	ea1c 53d1 	andsne.w	r3, ip, r1, lsr #23
    26f2:	ea92 0f0c 	teqne	r2, ip
    26f6:	ea93 0f0c 	teqne	r3, ip
    26fa:	d069      	beq.n	27d0 <__aeabi_fdiv+0xec>
    26fc:	eba2 0203 	sub.w	r2, r2, r3
    2700:	ea80 0c01 	eor.w	ip, r0, r1
    2704:	0249      	lsls	r1, r1, #9
    2706:	ea4f 2040 	mov.w	r0, r0, lsl #9
    270a:	d037      	beq.n	277c <__aeabi_fdiv+0x98>
    270c:	f04f 5380 	mov.w	r3, #268435456	; 0x10000000
    2710:	ea43 1111 	orr.w	r1, r3, r1, lsr #4
    2714:	ea43 1310 	orr.w	r3, r3, r0, lsr #4
    2718:	f00c 4000 	and.w	r0, ip, #2147483648	; 0x80000000
    271c:	428b      	cmp	r3, r1
    271e:	bf38      	it	cc
    2720:	005b      	lslcc	r3, r3, #1
    2722:	f142 027d 	adc.w	r2, r2, #125	; 0x7d
    2726:	f44f 0c00 	mov.w	ip, #8388608	; 0x800000
    272a:	428b      	cmp	r3, r1
    272c:	bf24      	itt	cs
    272e:	1a5b      	subcs	r3, r3, r1
    2730:	ea40 000c 	orrcs.w	r0, r0, ip
    2734:	ebb3 0f51 	cmp.w	r3, r1, lsr #1
    2738:	bf24      	itt	cs
    273a:	eba3 0351 	subcs.w	r3, r3, r1, lsr #1
    273e:	ea40 005c 	orrcs.w	r0, r0, ip, lsr #1
    2742:	ebb3 0f91 	cmp.w	r3, r1, lsr #2
    2746:	bf24      	itt	cs
    2748:	eba3 0391 	subcs.w	r3, r3, r1, lsr #2
    274c:	ea40 009c 	orrcs.w	r0, r0, ip, lsr #2
    2750:	ebb3 0fd1 	cmp.w	r3, r1, lsr #3
    2754:	bf24      	itt	cs
    2756:	eba3 03d1 	subcs.w	r3, r3, r1, lsr #3
    275a:	ea40 00dc 	orrcs.w	r0, r0, ip, lsr #3
    275e:	011b      	lsls	r3, r3, #4
    2760:	bf18      	it	ne
    2762:	ea5f 1c1c 	movsne.w	ip, ip, lsr #4
    2766:	d1e0      	bne.n	272a <__aeabi_fdiv+0x46>
    2768:	2afd      	cmp	r2, #253	; 0xfd
    276a:	f63f af50 	bhi.w	260e <__aeabi_fmul+0x92>
    276e:	428b      	cmp	r3, r1
    2770:	eb40 50c2 	adc.w	r0, r0, r2, lsl #23
    2774:	bf08      	it	eq
    2776:	f020 0001 	biceq.w	r0, r0, #1
    277a:	4770      	bx	lr
    277c:	f00c 4c00 	and.w	ip, ip, #2147483648	; 0x80000000
    2780:	ea4c 2050 	orr.w	r0, ip, r0, lsr #9
    2784:	327f      	adds	r2, #127	; 0x7f
    2786:	bfc2      	ittt	gt
    2788:	f1d2 03ff 	rsbsgt	r3, r2, #255	; 0xff
    278c:	ea40 50c2 	orrgt.w	r0, r0, r2, lsl #23
    2790:	4770      	bxgt	lr
    2792:	f440 0000 	orr.w	r0, r0, #8388608	; 0x800000
    2796:	f04f 0300 	mov.w	r3, #0
    279a:	3a01      	subs	r2, #1
    279c:	e737      	b.n	260e <__aeabi_fmul+0x92>
    279e:	f092 0f00 	teq	r2, #0
    27a2:	f000 4c00 	and.w	ip, r0, #2147483648	; 0x80000000
    27a6:	bf02      	ittt	eq
    27a8:	0040      	lsleq	r0, r0, #1
    27aa:	f410 0f00 	tsteq.w	r0, #8388608	; 0x800000
    27ae:	3a01      	subeq	r2, #1
    27b0:	d0f9      	beq.n	27a6 <__aeabi_fdiv+0xc2>
    27b2:	ea40 000c 	orr.w	r0, r0, ip
    27b6:	f093 0f00 	teq	r3, #0
    27ba:	f001 4c00 	and.w	ip, r1, #2147483648	; 0x80000000
    27be:	bf02      	ittt	eq
    27c0:	0049      	lsleq	r1, r1, #1
    27c2:	f411 0f00 	tsteq.w	r1, #8388608	; 0x800000
    27c6:	3b01      	subeq	r3, #1
    27c8:	d0f9      	beq.n	27be <__aeabi_fdiv+0xda>
    27ca:	ea41 010c 	orr.w	r1, r1, ip
    27ce:	e795      	b.n	26fc <__aeabi_fdiv+0x18>
    27d0:	ea0c 53d1 	and.w	r3, ip, r1, lsr #23
    27d4:	ea92 0f0c 	teq	r2, ip
    27d8:	d108      	bne.n	27ec <__aeabi_fdiv+0x108>
    27da:	0242      	lsls	r2, r0, #9
    27dc:	f47f af7d 	bne.w	26da <__aeabi_fmul+0x15e>
    27e0:	ea93 0f0c 	teq	r3, ip
    27e4:	f47f af70 	bne.w	26c8 <__aeabi_fmul+0x14c>
    27e8:	4608      	mov	r0, r1
    27ea:	e776      	b.n	26da <__aeabi_fmul+0x15e>
    27ec:	ea93 0f0c 	teq	r3, ip
    27f0:	d104      	bne.n	27fc <__aeabi_fdiv+0x118>
    27f2:	024b      	lsls	r3, r1, #9
    27f4:	f43f af4c 	beq.w	2690 <__aeabi_fmul+0x114>
    27f8:	4608      	mov	r0, r1
    27fa:	e76e      	b.n	26da <__aeabi_fmul+0x15e>
    27fc:	f030 4c00 	bics.w	ip, r0, #2147483648	; 0x80000000
    2800:	bf18      	it	ne
    2802:	f031 4c00 	bicsne.w	ip, r1, #2147483648	; 0x80000000
    2806:	d1ca      	bne.n	279e <__aeabi_fdiv+0xba>
    2808:	f030 4200 	bics.w	r2, r0, #2147483648	; 0x80000000
    280c:	f47f af5c 	bne.w	26c8 <__aeabi_fmul+0x14c>
    2810:	f031 4300 	bics.w	r3, r1, #2147483648	; 0x80000000
    2814:	f47f af3c 	bne.w	2690 <__aeabi_fmul+0x114>
    2818:	e75f      	b.n	26da <__aeabi_fmul+0x15e>
    281a:	bf00      	nop

0000281c <__aeabi_f2iz>:
    281c:	ea4f 0240 	mov.w	r2, r0, lsl #1
    2820:	f1b2 4ffe 	cmp.w	r2, #2130706432	; 0x7f000000
    2824:	d30f      	bcc.n	2846 <__aeabi_f2iz+0x2a>
    2826:	f04f 039e 	mov.w	r3, #158	; 0x9e
    282a:	ebb3 6212 	subs.w	r2, r3, r2, lsr #24
    282e:	d90d      	bls.n	284c <__aeabi_f2iz+0x30>
    2830:	ea4f 2300 	mov.w	r3, r0, lsl #8
    2834:	f043 4300 	orr.w	r3, r3, #2147483648	; 0x80000000
    2838:	f010 4f00 	tst.w	r0, #2147483648	; 0x80000000
    283c:	fa23 f002 	lsr.w	r0, r3, r2
    2840:	bf18      	it	ne
    2842:	4240      	negne	r0, r0
    2844:	4770      	bx	lr
    2846:	f04f 0000 	mov.w	r0, #0
    284a:	4770      	bx	lr
    284c:	f112 0f61 	cmn.w	r2, #97	; 0x61
    2850:	d101      	bne.n	2856 <__aeabi_f2iz+0x3a>
    2852:	0242      	lsls	r2, r0, #9
    2854:	d105      	bne.n	2862 <__aeabi_f2iz+0x46>
    2856:	f010 4000 	ands.w	r0, r0, #2147483648	; 0x80000000
    285a:	bf08      	it	eq
    285c:	f06f 4000 	mvneq.w	r0, #2147483648	; 0x80000000
    2860:	4770      	bx	lr
    2862:	f04f 0000 	mov.w	r0, #0
    2866:	4770      	bx	lr

00002868 <__libc_init_array>:
    2868:	b570      	push	{r4, r5, r6, lr}
    286a:	4e0f      	ldr	r6, [pc, #60]	; (28a8 <__libc_init_array+0x40>)
    286c:	4d0f      	ldr	r5, [pc, #60]	; (28ac <__libc_init_array+0x44>)
    286e:	1b76      	subs	r6, r6, r5
    2870:	10b6      	asrs	r6, r6, #2
    2872:	bf18      	it	ne
    2874:	2400      	movne	r4, #0
    2876:	d005      	beq.n	2884 <__libc_init_array+0x1c>
    2878:	3401      	adds	r4, #1
    287a:	f855 3b04 	ldr.w	r3, [r5], #4
    287e:	4798      	blx	r3
    2880:	42a6      	cmp	r6, r4
    2882:	d1f9      	bne.n	2878 <__libc_init_array+0x10>
    2884:	4e0a      	ldr	r6, [pc, #40]	; (28b0 <__libc_init_array+0x48>)
    2886:	4d0b      	ldr	r5, [pc, #44]	; (28b4 <__libc_init_array+0x4c>)
    2888:	1b76      	subs	r6, r6, r5
    288a:	f000 f8ab 	bl	29e4 <_init>
    288e:	10b6      	asrs	r6, r6, #2
    2890:	bf18      	it	ne
    2892:	2400      	movne	r4, #0
    2894:	d006      	beq.n	28a4 <__libc_init_array+0x3c>
    2896:	3401      	adds	r4, #1
    2898:	f855 3b04 	ldr.w	r3, [r5], #4
    289c:	4798      	blx	r3
    289e:	42a6      	cmp	r6, r4
    28a0:	d1f9      	bne.n	2896 <__libc_init_array+0x2e>
    28a2:	bd70      	pop	{r4, r5, r6, pc}
    28a4:	bd70      	pop	{r4, r5, r6, pc}
    28a6:	bf00      	nop
    28a8:	000029f0 	.word	0x000029f0
    28ac:	000029f0 	.word	0x000029f0
    28b0:	000029f8 	.word	0x000029f8
    28b4:	000029f0 	.word	0x000029f0

000028b8 <register_fini>:
    28b8:	4b02      	ldr	r3, [pc, #8]	; (28c4 <register_fini+0xc>)
    28ba:	b113      	cbz	r3, 28c2 <register_fini+0xa>
    28bc:	4802      	ldr	r0, [pc, #8]	; (28c8 <register_fini+0x10>)
    28be:	f000 b805 	b.w	28cc <atexit>
    28c2:	4770      	bx	lr
    28c4:	00000000 	.word	0x00000000
    28c8:	000028d9 	.word	0x000028d9

000028cc <atexit>:
    28cc:	2300      	movs	r3, #0
    28ce:	4601      	mov	r1, r0
    28d0:	461a      	mov	r2, r3
    28d2:	4618      	mov	r0, r3
    28d4:	f000 b81e 	b.w	2914 <__register_exitproc>

000028d8 <__libc_fini_array>:
    28d8:	b538      	push	{r3, r4, r5, lr}
    28da:	4c0a      	ldr	r4, [pc, #40]	; (2904 <__libc_fini_array+0x2c>)
    28dc:	4d0a      	ldr	r5, [pc, #40]	; (2908 <__libc_fini_array+0x30>)
    28de:	1b64      	subs	r4, r4, r5
    28e0:	10a4      	asrs	r4, r4, #2
    28e2:	d00a      	beq.n	28fa <__libc_fini_array+0x22>
    28e4:	f104 4380 	add.w	r3, r4, #1073741824	; 0x40000000
    28e8:	3b01      	subs	r3, #1
    28ea:	eb05 0583 	add.w	r5, r5, r3, lsl #2
    28ee:	3c01      	subs	r4, #1
    28f0:	f855 3904 	ldr.w	r3, [r5], #-4
    28f4:	4798      	blx	r3
    28f6:	2c00      	cmp	r4, #0
    28f8:	d1f9      	bne.n	28ee <__libc_fini_array+0x16>
    28fa:	e8bd 4038 	ldmia.w	sp!, {r3, r4, r5, lr}
    28fe:	f000 b87b 	b.w	29f8 <_fini>
    2902:	bf00      	nop
    2904:	00002a08 	.word	0x00002a08
    2908:	00002a04 	.word	0x00002a04

0000290c <__retarget_lock_acquire_recursive>:
    290c:	4770      	bx	lr
    290e:	bf00      	nop

00002910 <__retarget_lock_release_recursive>:
    2910:	4770      	bx	lr
    2912:	bf00      	nop

00002914 <__register_exitproc>:
    2914:	e92d 43f8 	stmdb	sp!, {r3, r4, r5, r6, r7, r8, r9, lr}
    2918:	4d2c      	ldr	r5, [pc, #176]	; (29cc <__register_exitproc+0xb8>)
    291a:	4606      	mov	r6, r0
    291c:	6828      	ldr	r0, [r5, #0]
    291e:	4698      	mov	r8, r3
    2920:	460f      	mov	r7, r1
    2922:	4691      	mov	r9, r2
    2924:	f7ff fff2 	bl	290c <__retarget_lock_acquire_recursive>
    2928:	4b29      	ldr	r3, [pc, #164]	; (29d0 <__register_exitproc+0xbc>)
    292a:	681c      	ldr	r4, [r3, #0]
    292c:	f8d4 3148 	ldr.w	r3, [r4, #328]	; 0x148
    2930:	2b00      	cmp	r3, #0
    2932:	d03e      	beq.n	29b2 <__register_exitproc+0x9e>
    2934:	685a      	ldr	r2, [r3, #4]
    2936:	2a1f      	cmp	r2, #31
    2938:	dc1c      	bgt.n	2974 <__register_exitproc+0x60>
    293a:	f102 0e01 	add.w	lr, r2, #1
    293e:	b176      	cbz	r6, 295e <__register_exitproc+0x4a>
    2940:	eb03 0182 	add.w	r1, r3, r2, lsl #2
    2944:	2401      	movs	r4, #1
    2946:	f8c1 9088 	str.w	r9, [r1, #136]	; 0x88
    294a:	f8d3 0188 	ldr.w	r0, [r3, #392]	; 0x188
    294e:	4094      	lsls	r4, r2
    2950:	4320      	orrs	r0, r4
    2952:	2e02      	cmp	r6, #2
    2954:	f8c3 0188 	str.w	r0, [r3, #392]	; 0x188
    2958:	f8c1 8108 	str.w	r8, [r1, #264]	; 0x108
    295c:	d023      	beq.n	29a6 <__register_exitproc+0x92>
    295e:	3202      	adds	r2, #2
    2960:	f8c3 e004 	str.w	lr, [r3, #4]
    2964:	6828      	ldr	r0, [r5, #0]
    2966:	f843 7022 	str.w	r7, [r3, r2, lsl #2]
    296a:	f7ff ffd1 	bl	2910 <__retarget_lock_release_recursive>
    296e:	2000      	movs	r0, #0
    2970:	e8bd 83f8 	ldmia.w	sp!, {r3, r4, r5, r6, r7, r8, r9, pc}
    2974:	4b17      	ldr	r3, [pc, #92]	; (29d4 <__register_exitproc+0xc0>)
    2976:	b30b      	cbz	r3, 29bc <__register_exitproc+0xa8>
    2978:	f44f 70c8 	mov.w	r0, #400	; 0x190
    297c:	f3af 8000 	nop.w
    2980:	4603      	mov	r3, r0
    2982:	b1d8      	cbz	r0, 29bc <__register_exitproc+0xa8>
    2984:	f8d4 2148 	ldr.w	r2, [r4, #328]	; 0x148
    2988:	6002      	str	r2, [r0, #0]
    298a:	2100      	movs	r1, #0
    298c:	6041      	str	r1, [r0, #4]
    298e:	460a      	mov	r2, r1
    2990:	f8c4 0148 	str.w	r0, [r4, #328]	; 0x148
    2994:	f04f 0e01 	mov.w	lr, #1
    2998:	f8c0 1188 	str.w	r1, [r0, #392]	; 0x188
    299c:	f8c0 118c 	str.w	r1, [r0, #396]	; 0x18c
    29a0:	2e00      	cmp	r6, #0
    29a2:	d0dc      	beq.n	295e <__register_exitproc+0x4a>
    29a4:	e7cc      	b.n	2940 <__register_exitproc+0x2c>
    29a6:	f8d3 118c 	ldr.w	r1, [r3, #396]	; 0x18c
    29aa:	430c      	orrs	r4, r1
    29ac:	f8c3 418c 	str.w	r4, [r3, #396]	; 0x18c
    29b0:	e7d5      	b.n	295e <__register_exitproc+0x4a>
    29b2:	f504 73a6 	add.w	r3, r4, #332	; 0x14c
    29b6:	f8c4 3148 	str.w	r3, [r4, #328]	; 0x148
    29ba:	e7bb      	b.n	2934 <__register_exitproc+0x20>
    29bc:	6828      	ldr	r0, [r5, #0]
    29be:	f7ff ffa7 	bl	2910 <__retarget_lock_release_recursive>
    29c2:	f04f 30ff 	mov.w	r0, #4294967295
    29c6:	e8bd 83f8 	ldmia.w	sp!, {r3, r4, r5, r6, r7, r8, r9, pc}
    29ca:	bf00      	nop
    29cc:	20000b50 	.word	0x20000b50
    29d0:	000029e0 	.word	0x000029e0
    29d4:	00000000 	.word	0x00000000
    29d8:	6174530a 	.word	0x6174530a
    29dc:	000a7472 	.word	0x000a7472

000029e0 <_global_impure_ptr>:
    29e0:	20000728                                (.. 

000029e4 <_init>:
    29e4:	b5f8      	push	{r3, r4, r5, r6, r7, lr}
    29e6:	bf00      	nop
    29e8:	bcf8      	pop	{r3, r4, r5, r6, r7}
    29ea:	bc08      	pop	{r3}
    29ec:	469e      	mov	lr, r3
    29ee:	4770      	bx	lr

000029f0 <__init_array_start>:
    29f0:	000028b9 	.word	0x000028b9

000029f4 <__frame_dummy_init_array_entry>:
    29f4:	00000289                                ....

000029f8 <_fini>:
    29f8:	b5f8      	push	{r3, r4, r5, r6, r7, lr}
    29fa:	bf00      	nop
    29fc:	bcf8      	pop	{r3, r4, r5, r6, r7}
    29fe:	bc08      	pop	{r3}
    2a00:	469e      	mov	lr, r3
    2a02:	4770      	bx	lr

00002a04 <__fini_array_start>:
    2a04:	00000265 	.word	0x00000265
